******************************************************************************
                  TI ARM Linker PC v20.2.1                     
******************************************************************************
>> Linked Thu Mar 31 17:09:42 2022

OUTPUT FILE NAME:   <SSM_LIB_GEN2.out>
ENTRY POINT SYMBOL: "_c_int00_noargs"  address: 0003a90d


MEMORY CONFIGURATION

         name            origin    length      used     unused   attr    fill
----------------------  --------  ---------  --------  --------  ----  --------
  MAIN                  00000000   0003efff  0003efff  00000000  R  X  000000ff 
  FLASH_MEM             0003f000   00001000  00001000  00000000  R  X  000000ff 
  INFO                  00200000   00004000  00000000  00004000  R  X
  SRAM_CODE             01000000   00010000  0000d848  000027b8  RW X
  SRAM_DATA             20000000   00010000  0000d848  000027b8  RW  


SEGMENT ALLOCATION MAP

run origin  load origin   length   init length attrs members
----------  ----------- ---------- ----------- ----- -------
00000000    00000000    00040000   00040000    r-x
  00000000    00000000    000000e4   000000e4    r-- .intvecs
  000000e4    000000e4    0003aa80   0003aa80    r-x .text
  0003ab64    0003ab64    00004270   00004270    r-- .const
  0003edd4    0003edd4    00000004   00000004    r-- $fill000
  0003edd8    0003edd8    000001b0   000001b0    r-- .cinit
  0003ef88    0003ef88    00000077   00000077    r-- $fill001
  0003f000    0003f000    000005c0   000005c0    r-x .FLASHCODE
  0003f5c0    0003f5c0    00000a40   00000a40    r-- $fill002
20000000    20000000    0000d64e   00000000    rw-
  20000000    20000000    000000e4   00000000    rw- .vtable
  200000e4    200000e4    0000b33e   00000000    rw- .bss
  2000b428    2000b428    00002226   00000000    rw- .data
2000fe00    2000fe00    00000200   00000000    rw-
  2000fe00    2000fe00    00000200   00000000    rw- .stack


SECTION ALLOCATION MAP

 output                                  attributes/
section   page    origin      length       input sections
--------  ----  ----------  ----------   ----------------
.intvecs   0    00000000    000000e4     
                  00000000    000000e4     startup_msp432p401r_ccs.obj (.intvecs:retain)

.text      0    000000e4    0003aa80     
                  000000e4    0000654c     LibG2_communication.obj (.text)
                  00006630    0000585c     LibG2_techmenu.obj (.text)
                  0000be8c    00005514     LibG2_lte.obj (.text)
                  000113a0    00004684     LibG2_coin.obj (.text)
                  00015a24    00003e8c     LibG2_creditcard.obj (.text)
                  000198b0    00003aa0     LibG2_lcd.obj (.text)
                  0001d350    000026fc     LibG2_flash.obj (.text)
                  0001fa4c    0000263c     LibG2_smartcard.obj (.text)
                  00022088    00002008     LibG2_rates.obj (.text)
                  00024090    00001ba8     LibG2_events.obj (.text)
                  00025c38    00001728     LibG2_statemachine.obj (.text)
                  00027360    000011b0     LibG2_isr.obj (.text)
                  00028510    00001070     LibG2_main.obj (.text)
                  00029580    00001058     LibG2_filedownload.obj (.text)
                  0002a5d8    00000f08     cs.obj (.text)
                  0002b4e0    00000d58     LibG2_debug.obj (.text)
                  0002c238    00000ccc     LibG2_led.obj (.text)
                  0002cf04    00000c6c     sx1276-LoRa.obj (.text)
                  0002db70    00000c18     LibG2_config.obj (.text)
                  0002e788    00000bc4     LibG2_otap.obj (.text)
                  0002f34c    00000b3c     LibG2_uid.obj (.text)
                  0002fe88    00000a4e     rtsv7M4_T_le_v4SPD16_eabi.lib : _printfi.c.obj (.text:__TI_printfi)
                  000308d6    00000002                                   : div0.asm.obj (.text)
                  000308d8    00000914     LibG2_xmlparser.obj (.text)
                  000311ec    000008d4     adc14.obj (.text)
                  00031ac0    000008cc     LibG2_rtc.obj (.text)
                  0003238c    000008a4     spi.obj (.text)
                  00032c30    00000878     sx1276-LoRaMisc.obj (.text)
                  000334a8    0000086c     LibG2_gpio_init.obj (.text)
                  00033d14    00000838     pcm.obj (.text)
                  0003454c    000007c8     LibG2_keypad.obj (.text)
                  00034d14    00000798     timer_a.obj (.text)
                  000354ac    00000554     LibG2_lob.obj (.text)
                  00035a00    00000508     rtc_c.obj (.text)
                  00035f08    000004a4     LibG2_meterdiag.obj (.text)
                  000363ac    00000480     radio_test.obj (.text)
                  0003682c    0000047c     gpio.obj (.text)
                  00036ca8    0000046c     LibG2_spi.obj (.text)
                  00037114    00000434     uart.obj (.text)
                  00037548    000003f0     interrupt.obj (.text)
                  00037938    00000344     LibG2_datakey.obj (.text)
                  00037c7c    00000328     system_msp432p401r.obj (.text)
                  00037fa4    00000300     LibG2_msp_init.obj (.text)
                  000382a4    0000027c     LibG2_card_d.obj (.text)
                  00038520    00000270     rtsv7M4_T_le_v4SPD16_eabi.lib : _printfi.c.obj (.text:_pconv_a)
                  00038790    00000244     sysctl.obj (.text)
                  000389d4    0000020c     LibG2_uart.obj (.text)
                  00038be0    000001ec     LibG2_aes.obj (.text)
                  00038dcc    000001dc     sx1276-Hal.obj (.text)
                  00038fa8    000001d0     rtsv7M4_T_le_v4SPD16_eabi.lib : _printfi.c.obj (.text:_pconv_g)
                  00039178    000001cc     sx1276.obj (.text)
                  00039344    000001b6     rtsv7M4_T_le_v4SPD16_eabi.lib : fd_add_t2.asm.obj (.text)
                  000394fa    00000002     --HOLE-- [fill = 000000ff]
                  000394fc    00000198     LibG2_timer.obj (.text)
                  00039694    0000013c     rtsv7M4_T_le_v4SPD16_eabi.lib : _printfi.c.obj (.text:_pconv_e)
                  000397d0    00000136                                   : fd_div_t2.asm.obj (.text)
                  00039906    00000002     --HOLE-- [fill = 000000ff]
                  00039908    00000124                                   : _printfi.c.obj (.text:fcvt)
                  00039a2c    00000110                                   : s_scalbn.c.obj (.text:scalbn)
                  00039b3c    000000fc                                   : fd_mul_t2.asm.obj (.text)
                  00039c38    000000e8     LibG2_power_mgmt.obj (.text)
                  00039d20    000000d8     wdt_a.obj (.text)
                  00039df8    000000cc     ref_a.obj (.text)
                  00039ec4    000000b4     LibG2_crc.obj (.text)
                  00039f78    000000b1     rtsv7M4_T_le_v4SPD16_eabi.lib : _printfi.c.obj (.text:_ltostr)
                  0003a029    00000001     --HOLE-- [fill = 000000ff]
                  0003a02a    0000009c                                   : memcpy_t2.asm.obj (.text)
                  0003a0c6    00000096                                   : ull_div_t2.asm.obj (.text)
                  0003a15c    00000086                                   : fd_cmp_t2.asm.obj (.text:__aeabi_cdcmple)
                  0003a1e2    00000086                                   : fd_cmp_t2.asm.obj (.text:__aeabi_cdrcmple)
                  0003a268    0000007a                                   : memset_t2.asm.obj (.text)
                  0003a2e2    0000006e                                   : _printfi.c.obj (.text:_mcpy)
                  0003a350    00000068                                   : copy_decompress_lzss.c.obj (.text:decompress:lzss:__TI_decompress_lzss)
                  0003a3b8    00000064                                   : s_frexp.c.obj (.text:frexp)
                  0003a41c    00000058     radio.obj (.text)
                  0003a474    00000056     rtsv7M4_T_le_v4SPD16_eabi.lib : _printfi.c.obj (.text:_pconv_f)
                  0003a4ca    00000054                                   : _ltoa.c.obj (.text:__TI_ltoa)
                  0003a51e    00000052                                   : _printfi.c.obj (.text:_ecpy)
                  0003a570    00000050                                   : fs_toull_t2.asm.obj (.text)
                  0003a5c0    0000004c                                   : atoi.c.obj (.text:atoi)
                  0003a60c    0000004c                                   : atol.c.obj (.text:atol)
                  0003a658    00000048                                   : fd_toi_t2.asm.obj (.text)
                  0003a6a0    00000044                                   : autoinit.c.obj (.text:__TI_auto_init_nobinit_nopinit:__TI_auto_init_nobinit_nopinit)
                  0003a6e4    00000044                                   : fd_tou_t2.asm.obj (.text)
                  0003a728    00000042     startup_msp432p401r_ccs.obj (.text)
                  0003a76a    00000040     rtsv7M4_T_le_v4SPD16_eabi.lib : u_divt2.asm.obj (.text)
                  0003a7aa    00000002     --HOLE-- [fill = 000000ff]
                  0003a7ac    00000040                                   : sprintf.c.obj (.text:sprintf)
                  0003a7ec    0000003e                                   : _printfi.c.obj (.text:_fcpy)
                  0003a82a    0000003e     cpu.obj (.text)
                  0003a868    00000038     rtsv7M4_T_le_v4SPD16_eabi.lib : fs_tod_t2.asm.obj (.text)
                  0003a8a0    00000036                                   : ull_tofs_t2.asm.obj (.text)
                  0003a8d6    00000036                                   : strncpy.c.obj (.text:strncpy)
                  0003a90c    00000034                                   : boot_cortex_m.c.obj (.text:_c_int00_noargs:_c_int00_noargs)
                  0003a940    00000034                                   : strstr.c.obj (.text:strstr)
                  0003a974    00000030     sx1276-Hal.obj (.text:SX1276WriteRxTx)
                  0003a9a4    0000002e     rtsv7M4_T_le_v4SPD16_eabi.lib : i_tofd_t2.asm.obj (.text)
                  0003a9d2    0000002c                                   : strncmp.c.obj (.text:strncmp)
                  0003a9fe    00000024                                   : memcmp.c.obj (.text:memcmp)
                  0003aa22    00000020                                   : u_tofd_t2.asm.obj (.text)
                  0003aa42    0000001e                                   : ll_lsl_t2.asm.obj (.text)
                  0003aa60    0000001c                                   : memccpy.c.obj (.text:memccpy)
                  0003aa7c    0000001a                                   : s_copysign.c.obj (.text:copysign)
                  0003aa96    00000018                                   : sprintf.c.obj (.text:_outs)
                  0003aaae    00000018                                   : strcmp.c.obj (.text:strcmp)
                  0003aac6    00000016                                   : strchr.c.obj (.text:strchr)
                  0003aadc    00000014                                   : strcpy.c.obj (.text:strcpy)
                  0003aaf0    00000014                                   : strlen.c.obj (.text:strlen)
                  0003ab04    00000012                                   : wcslen.c.obj (.text:wcslen)
                  0003ab16    0000000e                                   : copy_decompress_none.c.obj (.text:decompress:none:__TI_decompress_none)
                  0003ab24    0000000c     sx1276-Hal.obj (.text:SX1276ReadDio3)
                  0003ab30    0000000c     sx1276-Hal.obj (.text:SX1276ReadDio4)
                  0003ab3c    0000000c     rtsv7M4_T_le_v4SPD16_eabi.lib : copy_zero_init.c.obj (.text:decompress:ZI:__TI_zero_init)
                  0003ab48    0000000a                                   : sprintf.c.obj (.text:_outc)
                  0003ab52    00000002     --HOLE-- [fill = 000000ff]
                  0003ab54    00000008                                   : errno.c.obj (.text:__aeabi_errno_addr)
                  0003ab5c    00000004                                   : pre_init.c.obj (.text:_system_pre_init)
                  0003ab60    00000004                                   : exit.c.obj (.text:abort:abort)

.const     0    0003ab64    00004270     
                  0003ab64    00002280     LibG2_lcd.obj (.const:font32x48)
                  0003cde4    00001200     LibG2_lcd.obj (.const:font16x24)
                  0003dfe4    00000400     LibG2_crc.obj (.const:icr3tab)
                  0003e3e4    00000288     LibG2_lcd.obj (.const:.string:fontGIF3)
                  0003e66c    000001e8     LibG2_lcd.obj (.const:.string:fontGIF2)
                  0003e854    00000101     rtsv7M4_T_le_v4SPD16_eabi.lib : ctype.c.obj (.const:.string:_ctypes_)
                  0003e955    00000003     LibG2_creditcard.obj (.const:.string:CFG_AMEX_PREF_1)
                  0003e958    000000cc     sx1276-LoRa.obj (.const:HoppingFrequencies)
                  0003ea24    00000080     adc14.obj (.const:_ctlRegs)
                  0003eaa4    0000005e     LibG2_lte.obj (.const:.string)
                  0003eb02    00000002     LibG2_creditcard.obj (.const:.string:CFG_JCB_PREF_1)
                  0003eb04    0000005c     LibG2_filedownload.obj (.const:.string)
                  0003eb60    00000050     interrupt.obj (.const:g_pulRegs)
                  0003ebb0    0000004e     LibG2_debug.obj (.const:.string)
                  0003ebfe    00000040     LibG2_smartcard.obj (.const:.string:p_table)
                  0003ec3e    00000020     LibG2_smartcard.obj (.const:.string:s_table)
                  0003ec5e    00000002     --HOLE-- [fill = 000000ff]
                  0003ec60    00000020     interrupt.obj (.const:g_pulPriority)
                  0003ec80    0000001c     gpio.obj (.const:GPIO_PORT_TO_INT)
                  0003ec9c    00000014     LibG2_rates.obj (.const:$P$T0$1)
                  0003ecb0    00000014     LibG2_card_d.obj (.const:card_xxtea_key)
                  0003ecc4    00000010     LibG2_creditcard.obj (.const:.string:hextable$1)
                  0003ecd4    0000000d     LibG2_creditcard.obj (.const:.string:CFG_MAG_COLL_CARD)
                  0003ece1    0000000d     LibG2_creditcard.obj (.const:.string:CFG_MAG_TECH_CARD)
                  0003ecee    0000000d     LibG2_creditcard.obj (.const:.string:CFG_VISA_PREF1)
                  0003ecfb    0000000d     LibG2_creditcard.obj (.const:.string:CFG_VISA_PREF2)
                  0003ed08    0000000d     LibG2_creditcard.obj (.const:.string:CFG_VISA_PREF3)
                  0003ed15    0000000d     LibG2_creditcard.obj (.const:.string:CFG_VISA_PREF4)
                  0003ed22    0000000d     LibG2_creditcard.obj (.const:.string:CFG_VISA_PREF5)
                  0003ed2f    0000000d     LibG2_creditcard.obj (.const:.string:CFG_VISA_PREF6)
                  0003ed3c    0000000b     LibG2_creditcard.obj (.const:.string:CFG_MASTCARD_PREF_1)
                  0003ed47    0000000b     LibG2_creditcard.obj (.const:.string:CFG_MASTCARD_PREF_2)
                  0003ed52    0000000b     LibG2_creditcard.obj (.const:.string:CFG_MASTCARD_PREF_3)
                  0003ed5d    0000000b     LibG2_creditcard.obj (.const:.string:CFG_MASTCARD_PREF_4)
                  0003ed68    00000008     LibG2_smartcard.obj (.const:.string:bitIndex)
                  0003ed70    00000008     interrupt.obj (.const:g_pulDisRegs)
                  0003ed78    00000008     interrupt.obj (.const:g_pulEnRegs)
                  0003ed80    00000008     interrupt.obj (.const:g_pulPendRegs)
                  0003ed88    00000008     interrupt.obj (.const:g_pulUnpendRegs)
                  0003ed90    00000007     LibG2_smartcard.obj (.const:.string:DuncanAuthenticateSet)
                  0003ed97    00000007     LibG2_smartcard.obj (.const:.string:DuncanAuthenticateStore)
                  0003ed9e    00000005     LibG2_creditcard.obj (.const:.string:CFG_DISCOVER_PREF)
                  0003eda3    00000005     LibG2_creditcard.obj (.const:.string:CFG_ENROUTE_PREF_1)
                  0003eda8    00000005     LibG2_creditcard.obj (.const:.string:CFG_ENROUTE_PREF_2)
                  0003edad    00000005     LibG2_creditcard.obj (.const:.string:CFG_JCB_PREF_2)
                  0003edb2    00000005     LibG2_creditcard.obj (.const:.string:CFG_JCB_PREF_3)
                  0003edb7    00000005     LibG2_creditcard.obj (.const:.string:CFG_REINO_TEST_CARD)
                  0003edbc    00000004     LibG2_creditcard.obj (.const:.string:CFG_DINERS_PREF_1)
                  0003edc0    00000004     LibG2_creditcard.obj (.const:.string:CFG_DINERS_PREF_2)
                  0003edc4    00000004     LibG2_main.obj (.const)
                  0003edc8    00000003     LibG2_creditcard.obj (.const:.string:CFG_AMEX_PREF_2)
                  0003edcb    00000003     LibG2_creditcard.obj (.const:.string:CFG_DINERS_PREF_3)
                  0003edce    00000003     LibG2_creditcard.obj (.const:.string:CFG_DINERS_PREF_4)
                  0003edd1    00000003     LibG2_creditcard.obj (.const:.string:CFG_DINERS_PREF_5)

.cinit     0    0003edd8    000001b0     
                  0003edd8    00000176     (.cinit..data.load) [load image, compression = lzss]
                  0003ef4e    00000002     --HOLE-- [fill = 000000ff]
                  0003ef50    0000000c     (__TI_handler_table)
                  0003ef5c    00000004     --HOLE-- [fill = 000000ff]
                  0003ef60    00000008     (.cinit..bss.load) [load image, compression = zero_init]
                  0003ef68    00000008     (.cinit..vtable.load) [load image, compression = zero_init]
                  0003ef70    00000018     (__TI_cinit_table)

.init_array 
*          0    00000000    00000000     UNINITIALIZED

.binit     0    00000000    00000000     

.FLASHCODE 
*          0    0003f000    000005c0     
                  0003f000    000005c0     LibG2_otap.obj (.FLASHCODE)

.vtable    0    20000000    000000e4     UNINITIALIZED
                  20000000    000000e4     interrupt.obj (.vtable)

.bss       0    200000e4    0000b33e     UNINITIALIZED
                  200000e4    00004b4c     (.common:Queue)
                  20004c30    000018b8     (.common:LoRa_Queue)
                  200064e8    00000fff     (.common:glSystem_cfg)
                  200074e7    00000804     (.common:Self_Calibration)
                  20007ceb    00000514     (.common:glDFG_response)
                  200081ff    00000514     (.common:glMdmUart_recv_buf)
                  20008713    00000384     (.common:DK_data_read_buffer)
                  20008a97    00000384     (.common:flash_data_read_buffer)
                  20008e1b    00000300     (.common:request_events)
                  2000911b    000002b0     (.common:fTrack1Data)
                  200093cb    000002b0     (.common:fTrack2Data)
                  2000967b    00000290     (.common:comm_queue)
                  2000990b    000001f4     (.common:RData)
                  20009aff    000001c4     (.common:Coin_Calib_Params)
                  20009cc3    000001a4     (.common:nw_operator_name_id)
                  20009e67    00000120     (.common:sys_mdm_p)
                  20009f87    00000100     LibG2_xmlparser.obj (.bss:attribs)
                  2000a087    00000100     LibG2_filedownload.obj (.bss:attval_buf)
                  2000a187    00000100     (.common:RFBuffer)
                  2000a287    00000100     (.common:rx_ans)
                  2000a387    000000fc     (.common:LoRa_tx_queue)
                  2000a483    000000bc     (.common:glEvent_cache)
                  2000a53f    000000ac     (.common:lCoindata)
                  2000a5eb    000000a6     (.common:glOLT_req)
                  2000a691    00000080     LibG2_filedownload.obj (.bss:attnm_buf)
                  2000a711    00000080     LibG2_communication.obj (.bss:request_events_cache)
                  2000a791    00000080     LibG2_communication.obj (.bss:request_olt)
                  2000a811    00000080     LibG2_communication.obj (.bss:request_small)
                  2000a891    00000080     (.common:Buffer)
                  2000a911    00000080     (.common:SX1276LR_struct)
                  2000a991    00000080     (.common:SX1276Regs)
                  2000aa11    00000080     (.common:glComm_response)
                  2000aa91    00000080     (.common:glTemp_buf)
                  2000ab11    00000066     (.common:gprs_general_sync_request)
                  2000ab77    00000064     LibG2_debug.obj (.bss:debug_msg)
                  2000abdb    0000005e     (.common:acdb)
                  2000ac39    00000058     (.common:fTrack1String)
                  2000ac91    00000058     (.common:fTrack2String)
                  2000ace9    00000057     (.common:glBay_req)
                  2000ad40    00000050     (.common:glCreditcard_frame1)
                  2000ad90    00000040     LibG2_lte.obj (.bss:glTemp_buf2)
                  2000add0    00000040     (.common:RXData)
                  2000ae10    00000040     (.common:cmd_send)
                  2000ae50    00000040     (.common:glSCReadBuf)
                  2000ae90    0000003c     (.common:glOLT_resp)
                  2000aecc    0000003b     (.common:chunk_DNLD_status)
                  2000af07    00000034     (.common:LineBuff)
                  2000af3b    00000034     (.common:RTC_String)
                  2000af6f    00000034     (.common:glAfm_response_p)
                  2000afa3    00000028     (.common:Failed_Coins_diag)
                  2000afcb    00000028     (.common:Scosta_Audit_Data)
                  2000aff3    00000001     (.common:Current_ZO_eligibility)
                  2000aff4    00000028     (.common:coin_type)
                  2000b01c    00000028     (.common:flash_file_actvn_tbl)
                  2000b044    00000028     (.common:glCreditcard_frame)
                  2000b06c    00000028     (.common:gprs_general_sync_response)
                  2000b094    00000028     (.common:temp_coin_type)
                  2000b0bc    00000026     LibG2_xmlparser.obj (.bss)
                  2000b0e2    00000024     (.common:smart_card)
                  2000b106    00000023     (.common:glMB_info)
                  2000b129    00000021     (.common:tech_menu_disp)
                  2000b14a    00000020     (.common:External_Key)
                  2000b16a    00000020     (.common:Internal_Key)
                  2000b18a    00000020     (.common:default_apn)
                  2000b1aa    0000001c     (.common:CardData)
                  2000b1c6    0000001c     (.common:CardDataEncT2)
                  2000b1e2    00000002     (.common:Eof)
                  2000b1e4    0000001c     (.common:rtc_c_calender)
                  2000b200    00000018     LibG2_debug.obj (.bss:time_str)
                  2000b218    00000018     (.common:RadioDriver)
                  2000b230    00000018     (.common:rtc_hour_flag)
                  2000b248    00000016     (.common:LoRaSettings)
                  2000b25e    00000016     (.common:SCT_Trans_Data)
                  2000b274    00000015     LibG2_card_d.obj (.bss)
                  2000b289    00000014     (.common:default_UDP_server_ip)
                  2000b29d    00000012     (.common:loCoinParam)
                  2000b2af    00000011     (.common:glOLTACK_req)
                  2000b2c0    00000010     (.common:fLRCOnestrack1)
                  2000b2d0    00000010     (.common:fLRCOnestrack2)
                  2000b2e0    0000000c     (.common:PBC_other_MID_tx)
                  2000b2ec    0000000c     (.common:glAlarm_req)
                  2000b2f8    0000000c     (.common:glDLST_FLAGS)
                  2000b304    0000000c     (.common:temp_buff)
                  2000b310    00000008     LibG2_isr.obj (.bss)
                  2000b318    00000008     cs.obj (.bss)
                  2000b320    00000008     sx1276-LoRa.obj (.bss)
                  2000b328    00000008     (.common:External_Uid)
                  2000b330    00000008     (.common:Internal_Uid)
                  2000b338    00000008     (.common:RTC_ParkingTime)
                  2000b340    00000008     (.common:SYNCardID)
                  2000b348    00000008     (.common:last_refund_update)
                  2000b350    00000008     (.common:negetive_parking_time_left_on_meter)
                  2000b358    00000008     (.common:special_keys)
                  2000b360    00000006     LibG2_xmlparser.obj (.bss:elmt)
                  2000b366    00000006     (.common:Maintenance_Log)
                  2000b36c    00000004     LibG2_filedownload.obj (.bss)
                  2000b370    00000004     LibG2_keypad.obj (.bss)
                  2000b374    00000004     (.common:CFG_file_sizearr)
                  2000b378    00000004     (.common:DK_File_CRC)
                  2000b37c    00000004     (.common:Flash_File_CRC)
                  2000b380    00000004     (.common:Last_Audit_Time1)
                  2000b384    00000004     (.common:PBC_amnt_rcvd)
                  2000b388    00000004     (.common:PBC_expt_rcvd)
                  2000b38c    00000004     (.common:Running_Space_ID)
                  2000b390    00000004     (.common:SX1276)
                  2000b394    00000004     (.common:SYNCardDeductValue)
                  2000b398    00000004     (.common:TData)
                  2000b39c    00000004     (.common:bkp_MDM_Total_On_Time)
                  2000b3a0    00000004     (.common:bkp_Total_LCD_Backlight_On_Time)
                  2000b3a4    00000004     (.common:bkp_Total_LORA_PWR_On_Time)
                  2000b3a8    00000004     (.common:bkp_Total_LORA_PWR_On_Time_DC)
                  2000b3ac    00000004     (.common:config_RSAD)
                  2000b3b0    00000004     (.common:config_WSAD)
                  2000b3b4    00000004     (.common:file_sizearr)
                  2000b3b8    00000004     (.common:glCCexpiry_date)
                  2000b3bc    00000004     (.common:glTemp0)
                  2000b3c0    00000004     (.common:mpb_code_RSAD)
                  2000b3c4    00000004     (.common:mpb_code_WSAD)
                  2000b3c8    00000004     (.common:sense)
                  2000b3cc    00000002     (.common:RXIndex)
                  2000b3ce    00000002     (.common:base_freq)
                  2000b3d0    00000002     (.common:default_UDP_server_port)
                  2000b3d2    00000002     (.common:fBitCnt1)
                  2000b3d4    00000002     (.common:fBitCnt2)
                  2000b3d6    00000002     (.common:fBitCnt3)
                  2000b3d8    00000002     (.common:fBitCntp)
                  2000b3da    00000002     (.common:fNotReadCardCnt)
                  2000b3dc    00000002     (.common:fOneCnt1)
                  2000b3de    00000002     (.common:fOneCnt2)
                  2000b3e0    00000002     (.common:fOneCnt3)
                  2000b3e2    00000002     (.common:fOneCntp)
                  2000b3e4    00000002     (.common:fParityError1)
                  2000b3e6    00000002     (.common:fParityError2)
                  2000b3e8    00000002     (.common:fParityError3)
                  2000b3ea    00000002     (.common:fReadingCard)
                  2000b3ec    00000002     (.common:fTruncBitCnt1)
                  2000b3ee    00000002     (.common:fTruncBitCnt2)
                  2000b3f0    00000002     (.common:fTruncBitCnt3)
                  2000b3f2    00000002     (.common:fTruncBitCntp)
                  2000b3f4    00000002     (.common:glTemp1)
                  2000b3f6    00000002     (.common:glTemp2)
                  2000b3f8    00000002     (.common:glTemp3)
                  2000b3fa    00000002     (.common:glTemp4)
                  2000b3fc    00000002     (.common:received_area_num)
                  2000b3fe    00000002     (.common:received_cust_id)
                  2000b400    00000002     (.common:received_meter_id)
                  2000b402    00000002     (.common:temp1_max_sens)
                  2000b404    00000002     (.common:temp1_min_sens)
                  2000b406    00000002     (.common:temp2_max_sens)
                  2000b408    00000002     (.common:temp2_min_sens)
                  2000b40a    00000001     (.common:DLST_CURRENT_SLOT)
                  2000b40b    00000001     (.common:FIRST_COMM)
                  2000b40c    00000001     (.common:LQI_counter)
                  2000b40d    00000001     (.common:RespIndex)
                  2000b40e    00000001     (.common:Screen_Clear)
                  2000b40f    00000001     (.common:Serial_no_length)
                  2000b410    00000001     (.common:VCOM)
                  2000b411    00000001     (.common:coin_count)
                  2000b412    00000001     (.common:coin_validation_number)
                  2000b413    00000001     (.common:fBitsPerByteT1)
                  2000b414    00000001     (.common:fBitsPerByteT2)
                  2000b415    00000001     (.common:fBitsPerByteT3)
                  2000b416    00000001     (.common:fCharMask)
                  2000b417    00000001     (.common:fEndSentinelChar)
                  2000b418    00000001     (.common:fStartSentinelChar)
                  2000b419    00000001     (.common:fStartSentinelCharT3)
                  2000b41a    00000001     (.common:glDo_rtc_update)
                  2000b41b    00000001     (.common:olt_sz)
                  2000b41c    00000001     (.common:packet_start)
                  2000b41d    00000001     (.common:temp1_ratio_1)
                  2000b41e    00000001     (.common:temp1_ratio_2)
                  2000b41f    00000001     (.common:temp2_ratio_1)
                  2000b420    00000001     (.common:temp2_ratio_2)
                  2000b421    00000001     (.common:temp_co)

.data      0    2000b428    00002226     UNINITIALIZED
                  2000b428    00001770     LibG2_coin.obj (.data:loSensorSamples)
                  2000cb98    000002f8     LibG2_coin.obj (.data:glCoindata)
                  2000ce90    000000a3     LibG2_coin.obj (.data)
                  2000cf33    00000001     sx1276.obj (.data)
                  2000cf34    00000062     LibG2_communication.obj (.data)
                  2000cf96    00000002     LibG2_rates.obj (.data:ANTI_FEED_in_effect)
                  2000cf98    00000051     LibG2_techmenu.obj (.data)
                  2000cfe9    00000003     LibG2_otap.obj (.data)
                  2000cfec    00000050     LibG2_communication.obj (.data:Current_extracted_time_PBC)
                  2000d03c    00000050     LibG2_communication.obj (.data:Current_extracted_time_PBC_for_other_MID)
                  2000d08c    00000050     LibG2_communication.obj (.data:Last_processed_time)
                  2000d0dc    00000050     LibG2_communication.obj (.data:Last_processed_time_PBC)
                  2000d12c    00000050     LibG2_communication.obj (.data:Last_processed_time_PBC_for_other_MID)
                  2000d17c    00000050     LibG2_events.obj (.data)
                  2000d1cc    00000050     LibG2_communication.obj (.data:current_extracted_time)
                  2000d21c    00000045     LibG2_lte.obj (.data)
                  2000d261    00000044     LibG2_main.obj (.data:glSNSRdiag_string)
                  2000d2a5    00000001     --HOLE--
                  2000d2a6    00000002     LibG2_aes.obj (.data)
                  2000d2a8    0000003c     LibG2_filedownload.obj (.data)
                  2000d2e4    0000003c     LibG2_isr.obj (.data)
                  2000d320    00000030     gpio.obj (.data:GPIO_PORT_TO_BASE)
                  2000d350    0000002f     sx1276-LoRa.obj (.data)
                  2000d37f    00000001     --HOLE--
                  2000d380    0000002d     LibG2_rates.obj (.data)
                  2000d3ad    00000002     LibG2_lcd.obj (.data:Meter_Full)
                  2000d3af    00000001     --HOLE--
                  2000d3b0    00000029     LibG2_smartcard.obj (.data)
                  2000d3d9    00000028     LibG2_lcd.obj (.data:calibration_display_buf)
                  2000d401    00000028     LibG2_events.obj (.data:queue_process_message)
                  2000d429    00000002     LibG2_lcd.obj (.data:Meter_Full_Flg)
                  2000d42b    00000001     --HOLE--
                  2000d42c    00000027     LibG2_creditcard.obj (.data)
                  2000d453    00000001     --HOLE--
                  2000d454    00000025     LibG2_statemachine.obj (.data)
                  2000d479    00000002     LibG2_isr.obj (.data:Parking_Clock_Refresh)
                  2000d47b    00000001     --HOLE--
                  2000d47c    00000024     LibG2_lcd.obj (.data)
                  2000d4a0    0000001c     LibG2_gpio_init.obj (.data)
                  2000d4bc    0000001c     radio_test.obj (.data)
                  2000d4d8    00000019     LibG2_main.obj (.data)
                  2000d4f1    00000001     --HOLE--
                  2000d4f2    00000018     LibG2_meterdiag.obj (.data:batt_vltg)
                  2000d50a    00000016     sx1276-LoRa.obj (.data:LoRaSettings1)
                  2000d520    00000014     LibG2_coin.obj (.data:loMax_Sens)
                  2000d534    00000014     LibG2_coin.obj (.data:loMin_Sens)
                  2000d548    00000014     LibG2_coin.obj (.data:loRatio1)
                  2000d55c    00000014     LibG2_coin.obj (.data:loRatio2)
                  2000d570    00000011     LibG2_flash.obj (.data)
                  2000d581    00000010     LibG2_aes.obj (.data:AES_KEY)
                  2000d591    0000000f     LibG2_lcd.obj (.data:parking_clock)
                  2000d5a0    0000000c     LibG2_communication.obj (.data:LQI_diagnostic)
                  2000d5ac    0000000c     LibG2_meterdiag.obj (.data:tempC)
                  2000d5b8    0000000a     LibG2_debug.obj (.data)
                  2000d5c2    00000009     LibG2_meterdiag.obj (.data)
                  2000d5cb    00000001     --HOLE--
                  2000d5cc    00000009     LibG2_rtc.obj (.data)
                  2000d5d5    00000008     LibG2_smartcard.obj (.data:Cashkey_Account_Key)
                  2000d5dd    00000002     LibG2_main.obj (.data:Space_Zero_Out)
                  2000d5df    00000001     --HOLE--
                  2000d5e0    00000008     LibG2_flash.obj (.data:Last_RTC_Park_clock_sync)
                  2000d5e8    00000008     LibG2_keypad.obj (.data)
                  2000d5f0    00000008     LibG2_power_mgmt.obj (.data)
                  2000d5f8    00000008     LibG2_uid.obj (.data)
                  2000d600    00000008     LibG2_main.obj (.data:last_payment_try_time)
                  2000d608    00000008     LibG2_main.obj (.data:last_vacant_timestamp)
                  2000d610    00000008     LibG2_rates.obj (.data:parking_time_left_on_meter)
                  2000d618    00000008     LibG2_coin.obj (.data:parking_time_left_on_meter_prev)
                  2000d620    00000007     LibG2_lte.obj (.data:ICCID_First_6_Digit)
                  2000d627    00000001     --HOLE--
                  2000d628    00000007     LibG2_lob.obj (.data)
                  2000d62f    00000006     LibG2_rates.obj (.data:next_sched_rate_index)
                  2000d635    00000002     LibG2_main.obj (.data:VAC_ZERO_ELIGIBLE)
                  2000d637    00000001     --HOLE--
                  2000d638    00000004     rtsv7M4_T_le_v4SPD16_eabi.lib : errno.c.obj (.data)
                  2000d63c    00000004     system_msp432p401r.obj (.data)
                  2000d640    00000002     LibG2_main.obj (.data:ZERO_OUT)
                  2000d642    00000002     LibG2_main.obj (.data:ZERO_OUT_ENABLE_AT_EXPIRY)
                  2000d644    00000002     LibG2_main.obj (.data:glLast_reported_space_status)
                  2000d646    00000002     LibG2_statemachine.obj (.data:grace_time_trigger)
                  2000d648    00000002     LibG2_rates.obj (.data:in_prepay_parking)
                  2000d64a    00000002     LibG2_statemachine.obj (.data:real_payment_flag)
                  2000d64c    00000002     LibG2_coin.obj (.data:time_retain)

.stack     0    2000fe00    00000200     UNINITIALIZED
                  2000fe00    00000004     rtsv7M4_T_le_v4SPD16_eabi.lib : boot_cortex_m.c.obj (.stack)
                  2000fe04    000001fc     --HOLE--

__llvm_prf_cnts 
*          0    20000000    00000000     UNINITIALIZED

$fill000   0    0003edd4    00000004     
                  0003edd4    00000004     --HOLE-- [fill = 000000ff]

$fill001   0    0003ef88    00000077     
                  0003ef88    00000077     --HOLE-- [fill = 000000ff]

$fill002   0    0003f5c0    00000a40     
                  0003f5c0    00000a40     --HOLE-- [fill = 000000ff]

MODULE SUMMARY

       Module                        code     ro data   rw data
       ------                        ----     -------   -------
    .\
       system_msp432p401r.obj        808      0         8      
       startup_msp432p401r_ccs.obj   66       228       0      
    +--+-----------------------------+--------+---------+---------+
       Total:                        874      228       8      
                                                               
    .\Application Modules\
       LibG2_techmenu.obj            22620    0         260    
       LibG2_rates.obj               8200     20        126    
       LibG2_debug.obj               3416     78        608    
       LibG2_power_mgmt.obj          232      0         64     
    +--+-----------------------------+--------+---------+---------+
       Total:                        34468    98        1058   
                                                               
    .\Communication Modules\
       LibG2_communication.obj       25932    0         59768  
       LibG2_lte.obj                 21780    94        5194   
       LibG2_events.obj              7080     0         652    
       LibG2_filedownload.obj        4184     92        1166   
       LibG2_xmlparser.obj           2324     0         600    
       LibG2_lob.obj                 1364     0         94     
       LibG2_meterdiag.obj           1188     0         90     
    +--+-----------------------------+--------+---------+---------+
       Total:                        63852    186       67564  
                                                               
    .\Initialization Modules\
       LibG2_config.obj              3096     0         8190   
       LibG2_gpio_init.obj           2156     0         56     
       LibG2_msp_init.obj            768      0         0      
    +--+-----------------------------+--------+---------+---------+
       Total:                        6020     0         8246   
                                                               
    .\Low Level Driver Modules\
       LibG2_otap.obj                4484     0         114    
       LibG2_rtc.obj                 2252     0         74     
       LibG2_crc.obj                 180      1024      0      
       LibG2_spi.obj                 1132     0         0      
       LibG2_card_d.obj              636      20        42     
       LibG2_aes.obj                 492      0         36     
       LibG2_uart.obj                524      0         0      
       LibG2_timer.obj               408      0         0      
    +--+-----------------------------+--------+---------+---------+
       Total:                        10108    1044      266    
                                                               
    .\Low Level Driver Modules\driverlib\
       cs.obj                        3848     0         16     
       adc14.obj                     2260     128       0      
       spi.obj                       2212     0         0      
       pcm.obj                       2104     0         0      
       timer_a.obj                   1944     0         0      
       interrupt.obj                 1008     144       456    
       rtc_c.obj                     1288     0         0      
       gpio.obj                      1148     28        96     
       uart.obj                      1076     0         0      
       sysctl.obj                    580      0         0      
       wdt_a.obj                     216      0         0      
       ref_a.obj                     204      0         0      
       cpu.obj                       62       0         0      
    +--+-----------------------------+--------+---------+---------+
       Total:                        17950    300       568    
                                                               
    .\Main Module\
       LibG2_statemachine.obj        5928     0         426    
       LibG2_isr.obj                 4528     0         1462   
       LibG2_main.obj                4208     4         412    
    +--+-----------------------------+--------+---------+---------+
       Total:                        14664    4         2300   
                                                               
    .\Peripheral Modules\
       LibG2_coin.obj                18052    0         19376  
       LibG2_lcd.obj                 15008    14576     402    
       LibG2_creditcard.obj          16012    219       4174   
       LibG2_flash.obj               9980     0         1868   
       LibG2_smartcard.obj           9788     118       190    
       LibG2_led.obj                 3276     0         0      
       LibG2_uid.obj                 2876     0         246    
       LibG2_datakey.obj             836      0         1800   
       LibG2_keypad.obj              1992     0         24     
    +--+-----------------------------+--------+---------+---------+
       Total:                        77820    14913     28080  
                                                               
    .\Peripheral Modules\SX1276_RADIO\
       sx1276-LoRa.obj               3180     204       966    
       sx1276-LoRaMisc.obj           2168     0         0      
       radio_test.obj                1152     0         312    
       sx1276.obj                    460      0         266    
       sx1276-Hal.obj                548      0         0      
       radio.obj                     88       0         48     
    +--+-----------------------------+--------+---------+---------+
       Total:                        7596     204       1592   
                                                               
    C:\ti\ccs1010\ccs\tools\compiler\ti-cgt-arm_20.2.1.LTS\lib\rtsv7M4_T_le_v4SPD16_eabi.lib
       _printfi.c.obj                4851     0         0      
       fd_add_t2.asm.obj             438      0         0      
       fd_div_t2.asm.obj             310      0         0      
       s_scalbn.c.obj                272      0         0      
       fd_cmp_t2.asm.obj             268      0         0      
       ctype.c.obj                   0        257       0      
       fd_mul_t2.asm.obj             252      0         0      
       memcpy_t2.asm.obj             156      0         0      
       ull_div_t2.asm.obj            150      0         0      
       memset_t2.asm.obj             122      0         0      
       copy_decompress_lzss.c.obj    104      0         0      
       s_frexp.c.obj                 100      0         0      
       sprintf.c.obj                 98       0         0      
       _ltoa.c.obj                   84       0         0      
       fs_toull_t2.asm.obj           80       0         0      
       atoi.c.obj                    76       0         0      
       atol.c.obj                    76       0         0      
       fd_toi_t2.asm.obj             72       0         0      
       autoinit.c.obj                68       0         0      
       fd_tou_t2.asm.obj             68       0         0      
       u_divt2.asm.obj               64       0         0      
       fs_tod_t2.asm.obj             56       0         0      
       strncpy.c.obj                 54       0         0      
       ull_tofs_t2.asm.obj           54       0         0      
       boot_cortex_m.c.obj           52       0         0      
       strstr.c.obj                  52       0         0      
       i_tofd_t2.asm.obj             46       0         0      
       strncmp.c.obj                 44       0         0      
       memcmp.c.obj                  36       0         0      
       u_tofd_t2.asm.obj             32       0         0      
       ll_lsl_t2.asm.obj             30       0         0      
       memccpy.c.obj                 28       0         0      
       s_copysign.c.obj              26       0         0      
       strcmp.c.obj                  24       0         0      
       strchr.c.obj                  22       0         0      
       strcpy.c.obj                  20       0         0      
       strlen.c.obj                  20       0         0      
       wcslen.c.obj                  18       0         0      
       errno.c.obj                   8        0         8      
       copy_decompress_none.c.obj    14       0         0      
       copy_zero_init.c.obj          12       0         0      
       exit.c.obj                    4        0         0      
       pre_init.c.obj                4        0         0      
       div0.asm.obj                  2        0         0      
    +--+-----------------------------+--------+---------+---------+
       Total:                        8367     257       8      
                                                               
       Stack:                        0        0         1024   
       Linker Generated:             0        426       0      
    +--+-----------------------------+--------+---------+---------+
       Grand Total:                  241719   17660     110714 


LINKER GENERATED COPY TABLES

__TI_cinit_table @ 0003ef70 records: 3, size/record: 8, table size: 24
	.data: load addr=0003edd8, load size=00000176 bytes, run addr=2000b428, run size=00002226 bytes, compression=lzss
	.bss: load addr=0003ef60, load size=00000008 bytes, run addr=200000e4, run size=0000b33e bytes, compression=zero_init
	.vtable: load addr=0003ef68, load size=00000008 bytes, run addr=20000000, run size=000000e4 bytes, compression=zero_init


LINKER GENERATED HANDLER TABLE

__TI_handler_table @ 0003ef50 records: 3, size/record: 4, table size: 12
	index: 0, handler: __TI_zero_init
	index: 1, handler: __TI_decompress_lzss
	index: 2, handler: __TI_decompress_none


GLOBAL SYMBOLS: SORTED ALPHABETICALLY BY Name 

address   name                                           
-------   ----                                           
00027919  ADC14_IRQHandler                               
00027919  ADC14_IRQHandler                               
00031a39  ADC14_clearInterruptFlag                       
000315e1  ADC14_configureConversionMemory                
00031489  ADC14_configureMultiSequenceMode               
0003151f  ADC14_configureSingleSampleMode                
00031719  ADC14_disableComparatorWindow                  
000315b7  ADC14_disableConversion                        
000319b7  ADC14_disableInterrupt                         
0003135d  ADC14_disableModule                            
00031937  ADC14_disableReferenceBurst                    
0003139d  ADC14_disableSampleTimer                       
00031689  ADC14_enableComparatorWindow                   
00031575  ADC14_enableConversion                         
0003198f  ADC14_enableInterrupt                          
00031355  ADC14_enableModule                             
00031921  ADC14_enableReferenceBurst                     
00031373  ADC14_enableSampleTimer                        
00031a03  ADC14_getEnabledInterruptStatus                
000319df  ADC14_getInterruptStatus                       
00031841  ADC14_getMultiSequenceResult                   
00031413  ADC14_getResolution                            
00031827  ADC14_getResult                                
000318ad  ADC14_getResultArray                           
000313b3  ADC14_initModule                               
000315c3  ADC14_isBusy                                   
00031a65  ADC14_registerInterrupt                        
00031777  ADC14_setComparatorWindowValue                 
0003194d  ADC14_setPowerMode                             
000313f9  ADC14_setResolution                            
000317fd  ADC14_setResultFormat                          
0003145f  ADC14_setSampleHoldTime                        
0003141d  ADC14_setSampleHoldTrigger                     
00031595  ADC14_toggleConversionTrigger                  
00031a79  ADC14_unregisterInterrupt                      
0003a735  AES256_IRQHandler                              
2000d581  AES_KEY                                        
2000d2a6  AES_KEY_ID                                     
00029871  AFM_XML_parser_start_element_callback          
2000cf96  ANTI_FEED_in_effect                            
2000d25b  APN_Assigned                                   
2000d25c  APN_Assigned_ignore_steps                      
0001b261  AUDIT_Append_Failed_Screen                     
0001b1ff  AUDIT_Card_Full_Screen                         
0001b1a7  AUDIT_In_Progress_Screen                       
0001a9d1  AUDIT_Screen                                   
000360c1  Adc_Vltg_init                                  
2000d471  Add_CC_to_RAM_Q                                
2000cfb6  Adjust_clock                                   
2000cfb5  Adjust_clock_key_count                         
2000d194  Alarms_Q_count                                 
0001b181  AntiFeed_Screen                                
0002e415  Assign_Lora_parameters                         
2000cf3c  Asynchronous_FD                                
00020af5  AuthenticateDuncanAsyncCard                    
00018663  AuthenticateTranscation                        
0001b0b9  Authorizing_Screen                             
00033adb  BKLT_OFF                                       
00033ac7  BKLT_ON                                        
2000d480  BKLT_TimeOut_RTCTimestamp                      
2000cf3e  BSU_Chunk_received                             
2000d4c7  BW                                             
2000d1a8  Batch_Index_Sent                               
2000cf7b  Batch_clear_continuous_fail                    
2000d468  Battery_Read_Interval                          
2000d192  BayStatus_Q_count                              
2000ceac  Be4Bootup                                      
000364e3  BoardInit                                      
2000a891  Buffer                                         
2000d4c0  BufferSize                                     
0003a735  BusFault_Handler                               
0003ab61  C$$EXIT                                        
2000d46f  CARD_JAM_RAISED                                
2000d47f  CC_Auth_Entered                                
0001b5b1  CC_Card_Expired_Screen                         
0001b311  CC_Payment_Approved_Screen                     
0001b571  CC_Payment_Declined_Screen                     
2000d444  CC_TimeOut_RTCTimestamp                        
2000d4ca  CF                                             
0003e955  CFG_AMEX_PREF_1                                
0003edc8  CFG_AMEX_PREF_2                                
0003edbc  CFG_DINERS_PREF_1                              
0003edc0  CFG_DINERS_PREF_2                              
0003edcb  CFG_DINERS_PREF_3                              
0003edce  CFG_DINERS_PREF_4                              
0003edd1  CFG_DINERS_PREF_5                              
0003ed9e  CFG_DISCOVER_PREF                              
0003eda3  CFG_ENROUTE_PREF_1                             
0003eda8  CFG_ENROUTE_PREF_2                             
2000cf41  CFG_ERASE                                      
0003eb02  CFG_JCB_PREF_1                                 
0003edad  CFG_JCB_PREF_2                                 
0003edb2  CFG_JCB_PREF_3                                 
0003ecd4  CFG_MAG_COLL_CARD                              
0003ece1  CFG_MAG_TECH_CARD                              
0003ed3c  CFG_MASTCARD_PREF_1                            
0003ed47  CFG_MASTCARD_PREF_2                            
0003ed52  CFG_MASTCARD_PREF_3                            
0003ed5d  CFG_MASTCARD_PREF_4                            
0003edb7  CFG_REINO_TEST_CARD                            
0003ecee  CFG_VISA_PREF1                                 
0003ecfb  CFG_VISA_PREF2                                 
0003ed08  CFG_VISA_PREF3                                 
0003ed15  CFG_VISA_PREF4                                 
0003ed22  CFG_VISA_PREF5                                 
0003ed2f  CFG_VISA_PREF6                                 
2000b374  CFG_file_sizearr                               
2000d46d  CHECKED_SMS_ON_TIMEOUT                         
2000d226  COMMS_DOWN                                     
2000d22c  COMMS_DOWN_timestamp                           
0003a735  COMP_E0_IRQHandler                             
0003a735  COMP_E1_IRQHandler                             
2000cfa0  CONFIG_RSAD_DK                                 
2000cf98  CONFIG_WSAD_DK                                 
0003a85f  CPU_basepriGet                                 
0003a851  CPU_basepriSet                                 
0003a82b  CPU_cpsid                                      
0003a841  CPU_cpsie                                      
0003a837  CPU_primask                                    
0003a84d  CPU_wfi                                        
0003a735  CS_IRQHandler                                  
0002b2d9  CS_clearInterruptFlag                          
0002ab81  CS_disableClockRequest                         
0002ac67  CS_disableDCOExternalResistor                  
0002b1ad  CS_disableFaultCounter                         
0002b297  CS_disableInterrupt                            
0002ab59  CS_enableClockRequest                          
0002abc9  CS_enableDCOExternalResistor                   
0002b181  CS_enableFaultCounter                          
0002b275  CS_enableInterrupt                             
0002b119  CS_getACLK                                     
0002b0d9  CS_getBCLK                                     
0002ad61  CS_getDCOFrequency                             
0002b2bf  CS_getEnabledInterruptStatus                   
0002b0f5  CS_getHSMCLK                                   
0002b2b9  CS_getInterruptStatus                          
0002b15f  CS_getMCLK                                     
0002b13d  CS_getSMCLK                                    
0002a879  CS_initClockSignal                             
0002b325  CS_init_ACLK                                   
00037fe5  CS_init_CLK                                    
0002b415  CS_init_HSMCLK                                 
0002b3d3  CS_init_MCLK                                   
0002b3a1  CS_init_SMCLK                                  
0002b2fb  CS_registerInterrupt                           
0002b1d9  CS_resetFaultCounter                           
0002ac85  CS_setDCOCenteredFrequency                     
0002abf1  CS_setDCOExternalResistorCalibration           
0002af01  CS_setDCOFrequency                             
0002a83d  CS_setExternalClockSourceFrequency             
0002aba3  CS_setReferenceOscillatorFrequency             
0002b225  CS_startFaultCounter                           
0002a97d  CS_startHFXT                                   
0002a9a1  CS_startHFXTWithTimeout                        
0002aa65  CS_startLFXT                                   
0002aa89  CS_startLFXTWithTimeout                        
0002acbd  CS_tuneDCOFrequency                            
0002b30f  CS_unregisterInterrupt                         
00011cd5  CalculateCoinRatios                            
0002a3fd  Calculate_File_CRC_4mflash                     
000379f5  Calculate_File_CRC_for_DK_copy                 
2000cebc  Calibration_TimeOut_RTC                        
00018667  CancelTranscation                              
2000b1aa  CardData                                       
2000b1c6  CardDataEncT2                                  
2000d450  CardJam_Flag                                   
2000d44c  CardJam_TimeOut_RTC                            
0001aabd  CardReadFail_Screen                            
0001b6ed  Card_Not_Supported_Screen                      
000116e9  Check_Coin_Jam_Alarm                           
0002611d  Check_Comms_Intervals_State                    
0001bfe1  Check_LCD_Backlight_Power_Save_Hours           
2000d2b8  Chunk_FileOffset                               
2000d2b4  Chunk_FileType                                 
2000d4e3  Clean_occupied                                 
0001a4ed  Clear_Screen                                   
0000659d  Clear_all_active_alarms                        
2000cec7  CoinIndex                                      
00015099  CoinOk                                         
00012889  CoinValidation                                 
20009aff  Coin_Calib_Params                              
00013291  Coin_Calibration_Mode                          
0001b749  Coin_Calibration_Screen                        
0001f7c5  Coin_Only_Audit_to_Flash                       
2000d458  Coin_Per_Udp_Packet                            
2000d191  Coin_Q_count                                   
00014185  Coin_Self_Calibration_Mode                     
0001198d  Coin_WakeCount_adjustment                      
2000d575  Coin_cal_index                                 
2000d578  Coin_cal_max                                   
2000d57a  Coin_cal_min                                   
00018665  CompleteTranscation                            
2000d431  Connected_Card_reader                          
0000b587  Copy_all_files_to_mechanism                    
0000b4d1  Copy_all_flash_files_to_datakey                
0000ba51  Copy_only_MPB_config_2DK                       
0000b659  Copy_only_MPB_config_2mech                     
0000bc29  Copy_only_MPB_firmware_2DK                     
0000b885  Copy_only_MPB_firmware_2mech                   
2000d350  Count                                          
000174c5  CredCardCheckFormat                            
00017599  CredCardCheckFormat2                           
2000d44b  Credit_Card_processed_screen                   
2000d486  Current_Space_Id                               
2000d184  Current_Timestamp                              
2000aff3  Current_ZO_eligibility                         
2000cf8c  Current_bayStatus                              
2000cfec  Current_extracted_time_PBC                     
2000d03c  Current_extracted_time_PBC_for_other_MID       
2000cf8d  DFG_Chunk_received                             
2000d2ec  DFG_content_length                             
2000d2c0  DFG_filled_resp_len                            
2000d4ea  DIAG_EXCEPTION                                 
2000cfcc  DK2Mech_copy_option_count                      
2000b378  DK_File_CRC                                    
2000cfce  DK_MECH_files_copied_count                     
20008713  DK_data_read_buffer                            
2000b40a  DLST_CURRENT_SLOT                              
2000d5d4  DLST_FLAG_CHECK                                
2000d5cc  DLST_HOUR_CHANGE                               
0003a735  DMA_ERR_IRQHandler                             
0003a735  DMA_INT0_IRQHandler                            
0003a735  DMA_INT1_IRQHandler                            
0003a735  DMA_INT2_IRQHandler                            
0003a735  DMA_INT3_IRQHandler                            
2000d21d  DO_IP_SYNC                                     
0001d22d  DSM_Screen1                                    
0001cd6d  DSM_Screen2                                    
0001c5d9  DSM_Screen3                                    
0001c451  DSM_Screen4                                    
0001c39d  DSM_Screen5                                    
0001c2b5  DSM_Screen6                                    
0001c223  DSM_Screen7                                    
00037997  DataKey_Read                                   
00037939  DataKey_Write                                  
00036d13  DataKey_init_SPI                               
000346d1  Debounce                                       
0003a735  DebugMon_Handler                               
0002b5c5  Debug_Display                                  
0002b4ff  Debug_Output1                                  
0002b535  Debug_Output2                                  
0002b575  Debug_Output6                                  
0002b4e1  Debug_TextOut                                  
2000d5c1  Debug_Verbose_Level                            
00020e0d  DeductAmountDuncanAsyncCard                    
0003a735  Default_Handler                                
000394fd  DelayMs                                        
0003953b  DelayMs_1                                      
0003957f  DelayMs_2                                      
000395c5  DelayUs                                        
00036cd9  Display_HWSPI_Init                             
00033bbd  Display_Init_SWSPI                             
000286f9  Display_Meter_Info                             
00035871  Display_Meter_status                           
00037075  Display_SPI_Chip_Disable                       
00037039  Display_SPI_Chip_Enable                        
2000cfb1  Display_meter_info_2ndpage                     
2000cfb2  Display_position                               
2000d2bc  Downloaded_chunks                              
0003ed90  DuncanAuthenticateSet                          
0003ed97  DuncanAuthenticateStore                        
2000d4bc  Duty_Cycle_Mode                                
2000d4e1  ELIGIBLE_FOR_ZERO_OUT                          
000273a1  EUSCIA0_IRQHandler                             
000273a1  EUSCIA0_IRQHandler                             
000276d9  EUSCIA1_IRQHandler                             
000276d9  EUSCIA1_IRQHandler                             
000276e1  EUSCIA2_IRQHandler                             
000276e1  EUSCIA2_IRQHandler                             
00027719  EUSCIA3_IRQHandler                             
00027719  EUSCIA3_IRQHandler                             
000278d7  EUSCIB0_IRQHandler                             
000278d7  EUSCIB0_IRQHandler                             
000278f9  EUSCIB1_IRQHandler                             
000278f9  EUSCIB1_IRQHandler                             
00027909  EUSCIB2_IRQHandler                             
00027909  EUSCIB2_IRQHandler                             
00027911  EUSCIB3_IRQHandler                             
00027911  EUSCIB3_IRQHandler                             
00032afb  EUSCI_A_SPI_changeClockPhasePolarity           
00032baf  EUSCI_A_SPI_clearInterruptFlag                 
00032bdf  EUSCI_A_SPI_disable                            
00032b7d  EUSCI_A_SPI_disableInterrupt                   
00032bc9  EUSCI_A_SPI_enable                             
00032b63  EUSCI_A_SPI_enableInterrupt                    
00032b97  EUSCI_A_SPI_getInterruptStatus                 
00032bf5  EUSCI_A_SPI_getReceiveBufferAddressForDMA      
00032c03  EUSCI_A_SPI_getTransmitBufferAddressForDMA     
00032c11  EUSCI_A_SPI_isBusy                             
00032a7b  EUSCI_A_SPI_masterChangeClock                  
00032b53  EUSCI_A_SPI_receiveData                        
00032a5b  EUSCI_A_SPI_select4PinFunctionality            
00032ab1  EUSCI_A_SPI_slaveInit                          
00032b3d  EUSCI_A_SPI_transmitData                       
0003292d  EUSCI_B_SPI_changeClockPhasePolarity           
000329e1  EUSCI_B_SPI_clearInterruptFlag                 
00032a11  EUSCI_B_SPI_disable                            
000329af  EUSCI_B_SPI_disableInterrupt                   
000329fb  EUSCI_B_SPI_enable                             
00032995  EUSCI_B_SPI_enableInterrupt                    
000329c9  EUSCI_B_SPI_getInterruptStatus                 
00032a27  EUSCI_B_SPI_getReceiveBufferAddressForDMA      
00032a35  EUSCI_B_SPI_getTransmitBufferAddressForDMA     
00032a43  EUSCI_B_SPI_isBusy                             
000328b1  EUSCI_B_SPI_masterChangeClock                  
00032985  EUSCI_B_SPI_receiveData                        
00032891  EUSCI_B_SPI_select4PinFunctionality            
000328e3  EUSCI_B_SPI_slaveInit                          
0003296f  EUSCI_B_SPI_transmitData                       
2000d180  EVENTS_BATCH_WSAD                              
2000d197  EVENTS_Q_COUNT                                 
2000d199  EVENTS_Q_FULL                                  
2000b1e2  Eof                                            
0001d4a9  Erase_Security_Registers                       
2000d2f5  Event                                          
2000d466  Event_Upload_Interval                          
00039cbb  Exit_from_LPM                                  
2000b14a  External_Key                                   
2000b328  External_Uid                                   
00010a49  Extract_SMSCFG_Details                         
2000d25a  FD_BackGround_Occuring_Flag                    
2000b40b  FIRST_COMM                                     
0003a735  FLCTL_IRQHandler                               
0003a735  FPU_IRQHandler                                 
2000afa3  Failed_Coins_diag                              
2000d46a  File_Activation_interval                       
2000d2be  File_count                                     
000354ad  Fill_General_Sync_request_structure            
00012031  FindMaxSensorValue                             
00011da1  FindMinSensorValue                             
000161ad  FinishRead                                     
2000d3ac  First_Time_CC_Entry_For_Next_Schedule          
2000d3a0  First_amount_used_for_calc_in_CC               
2000d3a4  First_lmax_time_allowed_in_CC                  
0001d989  Flash_Batch_Erase                              
0001e04f  Flash_Batch_Flag_Read                          
0001e595  Flash_Batch_Flag_Write                         
0001eeb5  Flash_Coin_Calibration_Params                  
2000b37c  Flash_File_CRC                                 
2000d47e  Flash_Operation                                
0001d457  Flash_Power_Down                               
0001ea09  Flash_RTC_ParkingClock_Storage                 
0001dcf5  Flash_Read                                     
0001d4d1  Flash_Read_Device_ID                           
0001d6ad  Flash_Read_Unique_ID                           
00036fe1  Flash_SPI_Chip_Disable                         
00036f69  Flash_SPI_Chip_Enable                          
00036d77  Flash_SPI_RX                                   
00036d1b  Flash_SPI_TX                                   
0001ddc5  Flash_Write                                    
00036ca9  Flash_init_SPI                                 
0001aa93  Freeparking_Screen                             
2000d573  Front_Bi_Color                                 
00021195  GEMCardSetCardID                               
00036b4f  GPIO_clearInterruptFlag                        
00036b0f  GPIO_disableInterrupt                          
00036aed  GPIO_enableInterrupt                           
00036ba7  GPIO_getEnabledInterruptStatus                 
00036abf  GPIO_getInputPinValue                          
00036b31  GPIO_getInterruptStatus                        
00036b71  GPIO_interruptEdgeSelect                       
00036c63  GPIO_registerInterrupt                         
00036867  GPIO_setAsInputPin                             
00036a1b  GPIO_setAsInputPinWithPullDownResistor         
00036a6d  GPIO_setAsInputPinWithPullUpResistor           
0003682d  GPIO_setAsOutputPin                            
00036931  GPIO_setAsPeripheralModuleFunctionInputPin     
000368ad  GPIO_setAsPeripheralModuleFunctionOutputPin    
00036c1f  GPIO_setDriveStrengthHigh                      
00036c41  GPIO_setDriveStrengthLow                       
000369b5  GPIO_setOutputHighOnPin                        
000369d7  GPIO_setOutputLowOnPin                         
000369f9  GPIO_toggleOutputOnPin                         
00036c83  GPIO_unregisterInterrupt                       
2000cf5c  GPRS_comms_attempt_count                       
2000cf5e  GPRS_comms_success_count                       
2000d464  General_Sync_Interval                          
000186c5  GetAtr                                         
00011b2f  GetCoinParameters                              
000120c9  GetDroppedCoinParameters                       
000162c1  GetMagDataFromIC                               
00011bc9  GetMultipartCoinParameters                     
00035745  Get_Meter_Status                               
2000d4a1  HARDWARE_REVISION                              
0000436d  Handle_GPRS_Response                           
0000625d  Handle_LORA_Response                           
0003569d  Handle_Mechswap_Response                       
00017b61  Handle_OLT_response                            
00035623  Handle_RTC_4mServer                            
0003a735  HardFault_Handler                              
0003e958  HoppingFrequencies                             
2000d620  ICCID_First_6_Digit                            
0002dab9  IDBasedFreqCalculation                         
2000d44a  IDTECH_AUDIT_CARD                              
00033b2d  IDTech_POWER_OFF                               
00033b41  IDTech_POWER_ON                                
2000d5f1  IN_LPM_TEST                                    
2000d21f  IP_done                                        
00026f75  Identify_Key_State                             
0001fa95  Identify_Smart_Card_Type                       
0001b949  Idle_Screen                                    
00025cf9  Idle_State                                     
000184f1  IdtechTXFormat                                 
2000cf50  In_Queue_Count                                 
00015a25  InitForNewRead                                 
00038c05  Init_128BIT_AES_Set_DecryptMode                
00038be1  Init_128BIT_AES_Set_EncryptMode                
2000d5f2  Init_Complete_flag                             
0003654f  Init_LORA                                      
000105a9  Init_SMS_Mode                                  
2000d62c  Initial_boot                                   
00025c4b  Initialise_State                               
0003709d  InitspiMasterConfig                            
2000b16a  Internal_Key                                   
2000b330  Internal_Uid                                   
0003770b  Interrupt_disableInterrupt                     
0003755b  Interrupt_disableMaster                        
00037909  Interrupt_disableSleepOnIsrExit                
00037699  Interrupt_enableInterrupt                      
0003754b  Interrupt_enableMaster                         
000378f7  Interrupt_enableSleepOnIsrExit                 
00037673  Interrupt_getPriority                          
000375eb  Interrupt_getPriorityGrouping                  
000378d7  Interrupt_getPriorityMask                      
000378f1  Interrupt_getVectorTableAddress                
0003777d  Interrupt_isEnabled                            
00037809  Interrupt_pendInterrupt                        
0003756b  Interrupt_registerInterrupt                    
00037623  Interrupt_setPriority                          
000375d1  Interrupt_setPriorityGrouping                  
000378c7  Interrupt_setPriorityMask                      
000378e1  Interrupt_setVectorTableAddress                
00037879  Interrupt_unpendInterrupt                      
000375bd  Interrupt_unregisterInterrupt                  
2000d5ec  KeyPress_TimeOut_RTC                           
2000d484  LCD_BKLT_ON                                    
0001bd85  LCD_Backlight                                  
2000d4b4  LCD_Backlight_Off_Time                         
2000d4b0  LCD_Backlight_On_Time                          
2000d2fa  LED_ON                                         
2000d2fb  LED_ON_Count                                   
2000d317  LED_SPACE_FRONT                                
2000d314  LED_SPACE_REAR                                 
2000d2f9  LED_selected_in_config                         
2000d318  LEFT_FRONT                                     
2000d315  LEFT_REAR                                      
2000cf8a  LNG_Meter_ID                                   
2000d4c2  LORA_PWR                                       
2000d4a4  LORA_PWR_OFF_Time                              
2000d308  LORA_PWR_OFF_Time_DC                           
2000d4a8  LORA_PWR_On_Time                               
2000d30c  LORA_PWR_On_Time_DC                            
000370d1  LORA_SPI_Init                                  
00033c25  LORA_power_off                                 
00033bf7  LORA_power_on                                  
2000b40c  LQI_counter                                    
2000d5a0  LQI_diagnostic                                 
2000ceec  Last_Audit_Time                                
2000b380  Last_Audit_Time1                               
2000d31c  Last_CC_Payment_RTC                            
2000ceb8  Last_Cash_Payment_RTC                          
2000cf84  Last_Comms_Success_Flg                         
2000cf80  Last_Comms_Success_RTCTimestamp                
2000d4d8  Last_Sensor_Success_RTCTimestamp               
2000ceb0  Last_WakeCount_downwards                       
2000d08c  Last_processed_time                            
2000d0dc  Last_processed_time_PBC                        
2000d12c  Last_processed_time_PBC_for_other_MID          
2000af07  LineBuff                                       
2000b248  LoRaSettings                                   
2000d50a  LoRaSettings1                                  
2000cf4d  LoRa_Packet_Index                              
20004c30  LoRa_Queue                                     
2000cf51  LoRa_Queue_Count                               
2000cf60  LoRa_comms_attempt_count                       
2000cf62  LoRa_comms_success_count                       
2000a387  LoRa_tx_queue                                  
00018859  LoadDefaultValue                               
2000d4be  Lora_rx_Count                                  
2000d5c8  Low_Battery_count                              
2000d5c9  Low_Battery_count_H                            
2000d5ca  Low_Battery_count_L                            
2000cf2a  M1_M2_Counter                                  
00033b21  MAG_1_POWER_OFF                                
00033b15  MAG_1_POWER_ON                                 
2000d21e  MDM_AWAKE                                      
00033b65  MDM_DTR_clr                                    
00033b59  MDM_DTR_set                                    
2000d234  MDM_Off_Time                                   
2000d230  MDM_On_Time                                    
00033b7d  MDM_REG_CNTRL_clr                              
00033b71  MDM_REG_CNTRL_set                              
00033bb1  MDM_RST_clr                                    
00033ba5  MDM_RST_set                                    
00033b99  MDM_Tel_OFF                                    
00033b8d  MDM_Tel_ON                                     
2000d238  MDM_Total_On_Time                              
2000d227  MDM_Type_LE910NA1                              
2000d228  MDM_Type_ME910C1WW                             
2000cfa4  MPB_CODE_RSAD_DK                               
2000cf9c  MPB_CODE_WSAD_DK                               
0003edc5  MPB_VERSION                                    
0002853f  MSP_Status_Check                               
2000b366  Maintenance_Log                                
2000cea4  MaxValue_point                                 
2000cea8  MaxValue_point1                                
2000d381  Max_Amount_In_current_rate                     
2000d5f4  Mdm_off_start_timestamp                        
2000cfcd  Mech2DK_copy_option_count                      
0003a735  MemManage_Handler                              
0001b127  MeterFull_Screen                               
2000d3ad  Meter_Full                                     
2000d429  Meter_Full_Flg                                 
00025e93  Meter_In_LPM3_State                            
0000bd95  Meter_In_Service                               
0001bc31  Meter_Out_Of_Serice_Screen                     
0000bd5d  Meter_Out_of_service                           
2000d62e  Meter_Reset                                    
00039c39  Meter_regular_sleep                            
2000cea6  MinValue_point                                 
2000d5f3  Modem_Off_initiated                            
2000cf66  Modem_On_Count                                 
00010249  Modem_Recovery_Loop                            
2000d23d  Modem_Test_Flag                                
00038b21  Modem_out_UART                                 
0003a735  NMI_Handler                                    
000255a9  New_process_queue                              
2000d571  No_Modem_Coin_Only                             
0001aa69  Noparking_Screen                               
2000d4e2  Normal_occupied                                
2000d190  OLTAck_Q_count                                 
2000d193  OLT_Q_count                                    
2000d188  OLT_Timestamp                                  
2000d43c  OLT_end_time                                   
2000d438  OLT_start_time                                 
2000cec4  OPTICAL_COIN_JAM_RAISED                        
000363ad  OnMaster                                       
00036417  OnSlave                                        
2000cef0  Optical_LED_touched                            
2000d580  Opto_Coin_Disable                              
2000cf64  Original_packet_count                          
2000d196  PAMBayStatus_Q_count                           
00006389  PBC_TO_OTHER_METER                             
2000b384  PBC_amnt_rcvd                                  
2000b388  PBC_expt_rcvd                                  
2000b2e0  PBC_other_MID_tx                               
2000cf8f  PBC_to_Other_Meter                             
0003edc4  PCI_VERSION                                    
0003a735  PCM_IRQHandler                                 
000344ef  PCM_clearInterruptFlag                         
000344c5  PCM_disableInterrupt                           
0003449d  PCM_disableRudeMode                            
000344b1  PCM_enableInterrupt                            
0003448b  PCM_enableRudeMode                             
00033e97  PCM_getCoreVoltageLevel                        
000344df  PCM_getEnabledInterruptStatus                  
000344d9  PCM_getInterruptStatus                         
00033e3d  PCM_getPowerMode                               
0003447f  PCM_getPowerState                              
000343b1  PCM_gotoLPM0                                   
000343cf  PCM_gotoLPM0InterruptSafe                      
000343eb  PCM_gotoLPM3                                   
00034463  PCM_gotoLPM3InterruptSafe                      
00034385  PCM_gotoLPM4                                   
00034395  PCM_gotoLPM4InterruptSafe                      
00034503  PCM_registerInterrupt                          
00033e0b  PCM_setCoreVoltageLevel                        
00033e2d  PCM_setCoreVoltageLevelNonBlocking             
00033e1b  PCM_setCoreVoltageLevelWithTimeout             
0003403d  PCM_setPowerMode                               
0003404d  PCM_setPowerModeNonBlocking                    
0003405d  PCM_setPowerModeWithTimeout                    
0003430f  PCM_setPowerState                              
00034331  PCM_setPowerStateNonBlocking                   
0003431f  PCM_setPowerStateWithTimeout                   
00034341  PCM_shutdownDevice                             
00034517  PCM_unregisterInterrupt                        
2000d4ce  PKTS                                           
2000d4cc  PL                                             
0002793d  PORT1_IRQHandler                               
0002793d  PORT1_IRQHandler                               
000279a9  PORT2_IRQHandler                               
000279a9  PORT2_IRQHandler                               
00027c61  PORT3_IRQHandler                               
00027c61  PORT3_IRQHandler                               
00027cf1  PORT4_IRQHandler                               
00027cf1  PORT4_IRQHandler                               
00027d05  PORT5_IRQHandler                               
00027d05  PORT5_IRQHandler                               
00027d0d  PORT6_IRQHandler                               
00027d0d  PORT6_IRQHandler                               
0003a735  PSS_IRQHandler                                 
2000d4c8  PW                                             
2000cf4c  Packet_Index                                   
2000d479  Parking_Clock_Refresh                          
2000d478  Parking_Clock_Refresh_flag                     
000197c5  Parse_PBC_Payment                              
2000d3c2  Payment_card                                   
0003a735  PendSV_Handler                                 
00016173  PrepareForRead                                 
0002a2d1  Prepare_Flash_4FD                              
2000d1b0  Present_value                                  
2000d5c6  PreviousValue                                  
2000d4d0  Print_Once                                     
00025f11  Prioritize_Interrupt_State                     
000149cd  ProcessValidatedCoin                           
2000d46c  Process_Flash_Queue                            
000052dd  Process_Incoming_Sensor_Response               
00027267  Process_LoRa_Comms_State                       
00027209  Process_RAMQ_Comms_State                       
00034721  Process_keypress                               
000202bd  Process_smart_card_payment                     
00016299  PullDataFromMagCard                            
200000e4  Queue                                          
00024421  Queue_Request                                  
2000d2e4  Queue_SendReceive                              
2000cf7a  Queue_failure_count_l                          
2000d2fd  Quick_meter_status_request                     
2000990b  RData                                          
00039e3b  REF_A_disableReferenceVoltage                  
00039e2b  REF_A_disableReferenceVoltageOutput            
00039e13  REF_A_disableTempSensor                        
00039e33  REF_A_enableReferenceVoltage                   
00039e23  REF_A_enableReferenceVoltageOutput             
00039e1b  REF_A_enableTempSensor                         
00039e43  REF_A_getBandgapMode                           
00039e71  REF_A_getBufferedBandgapVoltageStatus          
00039e7d  REF_A_getVariableReferenceVoltageStatus        
00039e4d  REF_A_isBandgapActive                          
00039e65  REF_A_isRefGenActive                           
00039e59  REF_A_isRefGenBusy                             
00039e91  REF_A_setBufferedBandgapVoltageOneTimeTrigger  
00039df9  REF_A_setReferenceVoltage                      
00039e89  REF_A_setReferenceVoltageOneTimeTrigger        
2000d2c2  REINITIATE_FD                                  
2000d572  REV4_LED_CONFIG                                
2000a187  RFBuffer                                       
2000d358  RFLRState                                      
2000d319  RIGHT_FRONT                                    
2000d316  RIGHT_REAR                                     
00027921  RTC_C_IRQHandler                               
00027921  RTC_C_IRQHandler                               
00035e5d  RTC_C_clearInterruptFlag                       
00035ca7  RTC_C_convertBCDToBinary                       
00035cbf  RTC_C_convertBinaryToBCD                       
00035c03  RTC_C_definePrescaleEvent                      
00035d2d  RTC_C_disableInterrupt                         
00035cd7  RTC_C_enableInterrupt                          
00035b35  RTC_C_getCalendarTime                          
00035dfd  RTC_C_getEnabledInterruptStatus                
00035d95  RTC_C_getInterruptStatus                       
00035c2b  RTC_C_getPrescaleValue                         
00035a1f  RTC_C_holdClock                                
00035ac3  RTC_C_initCalendar                             
00035ea3  RTC_C_registerInterrupt                        
00035b9b  RTC_C_setCalendarAlarm                         
00035bd3  RTC_C_setCalendarEvent                         
00035a6d  RTC_C_setCalibrationData                       
00035a3d  RTC_C_setCalibrationFrequency                  
00035c57  RTC_C_setPrescaleValue                         
00035a99  RTC_C_setTemperatureCompensation               
00035a01  RTC_C_startClock                               
00035ec1  RTC_C_unregisterInterrupt                      
00027061  RTC_Minutes_ISR_State                          
2000b338  RTC_ParkingTime                                
2000af3b  RTC_String                                     
00031ac1  RTC_epoch_now                                  
00031c71  RTC_from_year                                  
2000add0  RXData                                         
2000b3cc  RXIndex                                        
2000d4d4  Radio                                          
2000b218  RadioDriver                                    
0003a41d  RadioDriverInit                                
0002110d  ReadAsyncCardWord                              
0001b0f7  ReadCard_Screen                                
00015fa9  ReadMagStripeTrack1                            
00016045  ReadMagStripeTrack2                            
000160e5  ReadMagStripeTrack3                            
00015f0d  ReadMagStripeTrackp                            
00026f39  Read_Credit_Card_State                         
00010345  Read_Mdm_diag_data                             
0002fa8b  Read_UIDKey                                    
00010d4d  Read_Validate_SMS                              
00035f09  Rechargeable_battery_read                      
00016205  RecordTrackData                                
2000d3b1  Record_ID                                      
00021631  RefundAmountDuncanAsyncCard                    
2000d3d4  RefundNewBalverify                             
2000d3d8  RefundOK                                       
0001c101  RefundShowAmount_Screen                        
000214fd  Refund_CampareSN                               
000214e1  Refund_CardSN                                  
2000d3c8  Refund_PresentSN                               
2000d3c4  Refund_PreviousSN                              
0002153b  Refund_SNcheck_timeleft                        
2000d3d0  Refund_earned_mins                             
00023edd  Refund_get_earned_amount                       
2000d3cc  Refund_timestamp                               
2000d224  Regn_Check_Count                               
0001d421  Release_Power_Down                             
0001c1f7  RemoveDatakey_Screen                           
0001bbf9  Remove_Card_Screen                             
0003a729  Reset_Handler                                  
2000b40d  RespIndex                                      
00020d65  RetrieveBalanceDuncanAsyncCard                 
2000b38c  Running_Space_ID                               
2000d360  RxPacketRssiValue                              
2000d35a  RxPacketSize                                   
00021e6d  SCOSTA_ReadAsyncCardWord                       
00021b85  SCOSTA_WriteAsyncCardWord                      
00021a0d  SCOSTA_smartcard_write                         
2000d195  SCT_Q_count                                    
2000b25e  SCT_Trans_Data                                 
0001b601  SC_Card_Invalid_Screen                         
0001b643  SC_Card_Low_Fund_Screen                        
2000d3b0  SC_City_Code                                   
0001b405  SC_Payment_Approved_Screen                     
0001b6a1  SC_Payment_Disabled_Screen                     
2000d3bc  SC_Serial_Num                                  
2000d3b3  SC_Verify_Update                               
2000d2f4  SC_bytes                                       
2000cf86  SEND_SEQ_NUM_CHK_FLAG                          
2000d62d  SENSOR_OUT_STATUS                              
2000d4c6  SF                                             
2000d2e5  SLEEP_ENABLE                                   
2000d4e0  SMS_MODE                                       
00036daf  SPIWriteBitBangByte                            
00036f4f  SPIWriteByte                                   
0001a0b9  SPIWriteLine                                   
00036eb3  SPIWriteRLEByte                                
0001a3c5  SPIWriteRLELine                                
0001a11b  SPIWriteRLELine_mod                            
00036e31  SPIWrite_7bits                                 
0003254f  SPI_changeClockPhasePolarity                   
000324a9  SPI_changeMasterClock                          
00032701  SPI_clearInterruptFlag                         
00032683  SPI_disableInterrupt                           
000325dd  SPI_disableModule                              
0003265d  SPI_enableInterrupt                            
000325c1  SPI_enableModule                               
000326d1  SPI_getEnabledInterruptStatus                  
000326a9  SPI_getInterruptStatus                         
000325f9  SPI_getReceiveBufferAddressForDMA              
00032615  SPI_getTransmitBufferAddressForDMA             
000323bd  SPI_initMaster                                 
000324d1  SPI_initSlave                                  
00032641  SPI_isBusy                                     
000325a5  SPI_receiveData                                
00032727  SPI_registerInterrupt                          
00032483  SPI_selectFourPinFunctionality                 
0003257f  SPI_transmitData                               
000327e5  SPI_unregisterInterrupt                        
0003a735  SVC_Handler                                    
2000b390  SX1276                                         
00038f57  SX1276GetByte                                  
00039283  SX1276GetLoRaOn                                
00039299  SX1276GetOpMode                                
000392e1  SX1276GetPacketAfc                             
000392d1  SX1276GetPacketRssi                            
000392b9  SX1276GetPacketRxGain                          
000392c1  SX1276GetPacketSnr                             
00039311  SX1276GetRFState                               
000392ed  SX1276GetRxPacket                              
00039179  SX1276Init                                     
00038dcd  SX1276InitIo                                   
2000d354  SX1276LR                                       
2000a911  SX1276LR_struct                                
0002d2ed  SX1276LoRaCheckTXState                         
00032fc5  SX1276LoRaGetErrorCoding                       
0003315b  SX1276LoRaGetFreqHopOn                         
0003318b  SX1276LoRaGetHopPeriod                         
00033101  SX1276LoRaGetImplicitHeaderOn                  
0003340d  SX1276LoRaGetLowDatarateOptimize               
00033479  SX1276LoRaGetNbTrigPeaks                       
0002d191  SX1276LoRaGetOpMode                            
000332eb  SX1276LoRaGetPAOutput                          
00033285  SX1276LoRaGetPa20dBm                           
0003333f  SX1276LoRaGetPaRamp                            
00033099  SX1276LoRaGetPacketCrcOn                       
0002d225  SX1276LoRaGetPacketRssi                        
0002d211  SX1276LoRaGetPacketRxGain                      
0002d217  SX1276LoRaGetPacketSnr                         
00033205  SX1276LoRaGetPayloadLength                     
0003306d  SX1276LoRaGetPreambleLength                    
00032c83  SX1276LoRaGetRFFrequency                       
00032e0f  SX1276LoRaGetRFPower                           
0002d2b5  SX1276LoRaGetRFState                           
0002d25d  SX1276LoRaGetRxPacket                          
000331d5  SX1276LoRaGetRxPacketTimeout                   
00033141  SX1276LoRaGetRxSingleOn                        
00032ebb  SX1276LoRaGetSignalBandwidth                   
00032f61  SX1276LoRaGetSpreadingFactor                   
000333a3  SX1276LoRaGetSymbTimeout                       
000331bb  SX1276LoRaGetTxPacketTimeout                   
0002cf05  SX1276LoRaInit                                 
0002d339  SX1276LoRaProcess                              
0002d1c5  SX1276LoRaReadRssi                             
0002d1ab  SX1276LoRaReadRxGain                           
0002d0f7  SX1276LoRaReset                                
0002d0e7  SX1276LoRaSetDefaults                          
00032f85  SX1276LoRaSetErrorCoding                       
00033147  SX1276LoRaSetFreqHopOn                         
00033161  SX1276LoRaSetHopPeriod                         
000330c3  SX1276LoRaSetImplicitHeaderOn                  
000333cb  SX1276LoRaSetLowDatarateOptimize               
0003343d  SX1276LoRaSetNbTrigPeaks                       
0002d129  SX1276LoRaSetOpMode                            
000332b5  SX1276LoRaSetPAOutput                          
00033229  SX1276LoRaSetPa20dBm                           
00033309  SX1276LoRaSetPaRamp                            
00032fe9  SX1276LoRaSetPacketCrcOn                       
000331db  SX1276LoRaSetPayloadLength                     
00033029  SX1276LoRaSetPreambleLength                    
00032c31  SX1276LoRaSetRFFrequency                       
00032ccf  SX1276LoRaSetRFPower                           
0002d2d5  SX1276LoRaSetRFState                           
000331c1  SX1276LoRaSetRxPacketTimeout                   
0003312d  SX1276LoRaSetRxSingleOn                        
00032e7f  SX1276LoRaSetSignalBandwidth                   
00032ee5  SX1276LoRaSetSpreadingFactor                   
00033359  SX1276LoRaSetSymbTimeout                       
0002d291  SX1276LoRaSetTxPacket                          
000331ab  SX1276LoRaSetTxPacketTimeout                   
0002d239  SX1276LoRaStartRx                              
00039329  SX1276Process                                  
00038e35  SX1276Read                                     
00038ec1  SX1276ReadBuffer                               
0003ab25  SX1276ReadDio3                                 
0003ab31  SX1276ReadDio4                                 
00038f85  SX1276ReadFifo                                 
000392a1  SX1276ReadRssi                                 
000392b1  SX1276ReadRxGain                               
2000a991  SX1276Regs                                     
0003919f  SX1276Reset                                    
00038f3d  SX1276SendByte                                 
000391df  SX1276SetLoRaOn                                
00039289  SX1276SetOpMode                                
00039319  SX1276SetRFState                               
00038de9  SX1276SetReset                                 
000392fd  SX1276SetTxPacket                              
000392e3  SX1276StartRx                                  
00038e1b  SX1276Write                                    
00038e4b  SX1276WriteBuffer                              
00038f6f  SX1276WriteFifo                                
0003a975  SX1276WriteRxTx                                
2000b394  SYNCardDeductValue                             
2000b340  SYNCardID                                      
00021179  SYNCardReadCardID                              
000211bf  SYNCardReadDeductRedundValue                   
000211af  SYNCard_SaveDeductRefundValue                  
2000afcb  Scosta_Audit_Data                              
2000b40e  Screen_Clear                                   
2000d49c  Screen_TimeOut_RTC                             
2000d2f2  Seconds_Counter                                
200074e7  Self_Calibration                               
2000d574  Self_calibrated_after_last_cfg                 
000062e1  Send_ACK2Node                                  
00004ec1  Send_Audit_Via_Temp_GW                         
2000d225  Send_SMS_ACK                                   
00010781  Send_SMS_request                               
00011c4d  SensorRead                                     
2000cf90  Seq_num                                        
2000d5fc  Serial_No_ASCII                                
2000b40f  Serial_no_length                               
00031d2d  SetMSP_RTC                                     
0001abfd  ShowAmount_Screen                              
0001fa4d  Smart_Card_Reset                               
00037fcb  Soft_Reset_watchdog                            
000131ad  SortanArray_ByValue                            
2000d5dd  Space_Zero_Out                                 
2000cf43  Special_Action_Trigger                         
00011031  Special_Test_AT_Commands                       
000187b7  Start                                          
00018171  StartTrnsaction                                
2000cf93  Start_Day_Coin_Diag                            
2000cf91  Start_Hour_Coin_Diag                           
2000cf92  Start_Minute_Coin_Diag                         
2000cf94  Start_Month_Coin_Diag                          
00026b89  Start_UDP_Comms_State                          
2000cfbc  Static_display                                 
00015ea9  SufficientData                                 
00025c39  Switch_States                                  
2000d628  Sync_status                                    
00038983  SysCtl_disableGlitchFilter                     
00038813  SysCtl_disableNMISource                        
0003891b  SysCtl_disablePeripheralAtCPUHalt              
0003885d  SysCtl_disableSRAMBank                         
000388e1  SysCtl_disableSRAMBankRetention                
00038977  SysCtl_enableGlitchFilter                      
00038827  SysCtl_enableNMISource                         
00038907  SysCtl_enablePeripheralAtCPUHalt               
00038841  SysCtl_enableSRAMBank                          
000388c5  SysCtl_enableSRAMBankRetention                 
0003880d  SysCtl_getFlashSize                            
0003883b  SysCtl_getNMISourceStatus                      
00038807  SysCtl_getSRAMSize                             
00038791  SysCtl_getTLVInfo                              
0003898f  SysCtl_getTempCalibrationConstant              
000388fd  SysCtl_rebootDevice                            
00038953  SysCtl_setWDTPasswordViolationResetType        
0003892f  SysCtl_setWDTTimeoutResetType                  
0003a735  SysTick_Handler                                
2000d63c  SystemCoreClock                                
00037c7d  SystemCoreClockUpdate                          
00037ef1  SystemInit                                     
2000d42d  T1_Faw_flag                                    
2000d42c  T2_Faw_flag                                    
0003a735  T32_INT1_IRQHandler                            
0003a735  T32_INT2_IRQHandler                            
0003a735  T32_INTC_IRQHandler                            
00027361  TA0_0_IRQHandler                               
00027361  TA0_0_IRQHandler                               
0003a735  TA0_N_IRQHandler                               
00027369  TA1_0_IRQHandler                               
00027369  TA1_0_IRQHandler                               
0003a735  TA1_N_IRQHandler                               
00027377  TA2_0_IRQHandler                               
00027377  TA2_0_IRQHandler                               
0003a735  TA2_N_IRQHandler                               
00027385  TA3_0_IRQHandler                               
00027385  TA3_0_IRQHandler                               
0003a735  TA3_N_IRQHandler                               
2000b398  TData                                          
0000bf91  TELIT_POWER_DISABLE                            
0000bf89  TELIT_POWER_ENABLE                             
0000bf07  TELIT_POWER_OFF                                
0000be8d  TELIT_POWER_ON                                 
00026aad  Take_Meter_Diag_State                          
2000d2e8  Tasks_Priority_Register                        
00006631  TechMenu_Display_Main_Menu                     
00006e35  TechMenu_Get_Event_Update_Time                 
00006dd9  TechMenu_Get_RTC_update_time                   
0000a8c5  TechMenu_ProcessKey_CANCEL_In_TechMode         
000093f9  TechMenu_ProcessKey_DOWN_In_TechMode           
00009eb9  TechMenu_ProcessKey_OK_In_TechMode             
00008811  TechMenu_ProcessKey_UP_In_TechMode             
2000d2fe  Tech_key_seq                                   
2000cfae  Tech_menu                                      
2000cfd0  Tech_menu_info                                 
2000cfc1  Tech_modem_onoff_mode                          
00006ee9  Technician_Menu_Information                    
00035fb3  Temperature_read                               
2000d4ec  Test_Watchdog_Time                             
2000d474  Test_Watchdog_Time_1                           
000351df  Timer_A_clearCaptureCompareInterrupt           
000351c9  Timer_A_clearInterruptFlag                     
00035047  Timer_A_clearTimer                             
00034e6f  Timer_A_configureContinuousMode                
00034efd  Timer_A_configureUpDownMode                    
00034e9f  Timer_A_configureUpMode                        
0003526d  Timer_A_disableCaptureCompareInterrupt         
0003521b  Timer_A_disableInterrupt                       
00035241  Timer_A_enableCaptureCompareInterrupt          
00035207  Timer_A_enableInterrupt                        
00035113  Timer_A_generatePWM                            
000350b9  Timer_A_getCaptureCompareCount                 
000352d5  Timer_A_getCaptureCompareEnabledInterruptStatus
00035295  Timer_A_getCaptureCompareInterruptStatus       
00034ffb  Timer_A_getCounterValue                        
000352bd  Timer_A_getEnabledInterruptStatus              
0003522f  Timer_A_getInterruptStatus                     
0003508b  Timer_A_getOutputForOutputModeOutBitValue      
0003505b  Timer_A_getSynchronizedCaptureCompareInput     
00034f5b  Timer_A_initCapture                            
00034fad  Timer_A_initCompare                            
00035311  Timer_A_registerInterrupt                      
0003519d  Timer_A_setCompareValue                        
000350db  Timer_A_setOutputForOutputModeOutBitValue      
00034e59  Timer_A_startCounter                           
00035189  Timer_A_stopTimer                              
000353e3  Timer_A_unregisterInterrupt                    
2000d18c  Timestamp_diff                                 
2000d19c  Total_Events_count                             
2000d4b8  Total_LCD_Backlight_On_Time                    
2000d4ac  Total_LORA_PWR_On_Time                         
2000d310  Total_LORA_PWR_On_Time_DC                      
00015a81  Track1DataToString                             
00015ca5  Track2DataToString                             
00015ea3  Track3DataToString                             
00004d25  Transactions_via_LoRa                          
2000d368  Transmitter_RSSI_value                         
00003689  Trigger_Asynchronous_FD                        
000338f1  Turn_Off_card_IOs                              
00018605  TxData                                         
00037445  UART_clearInterruptFlag                        
00037399  UART_disableInterrupt                          
0003727b  UART_disableModule                             
00037369  UART_enableInterrupt                           
00037265  UART_enableModule                              
000373e9  UART_getEnabledInterruptStatus                 
000373c9  UART_getInterruptStatus                        
00037331  UART_getReceiveBufferAddressForDMA             
0003733f  UART_getTransmitBufferAddressForDMA            
00037115  UART_initModule                                
00037291  UART_queryStatusFlags                          
0003723f  UART_receiveData                               
00037465  UART_registerInterrupt                         
000372b9  UART_resetDormant                              
0003734d  UART_selectDeglitchTime                        
000372a5  UART_setDormant                                
000372cd  UART_transmitAddress                           
000372eb  UART_transmitBreak                             
000371fd  UART_transmitData                              
000374dd  UART_unregisterInterrupt                       
0002f821  UID_Copy_Scratchpad                            
0002f9f3  UID_Read_Mem                                   
0002f775  UID_Read_scrathpad                             
0002f899  UID_Write_Mem                                  
0002f6b1  UID_Write_scrathpad                            
0002f467  UID_init                                       
0002f5a1  UID_rd_byte                                    
0002f643  UID_read_net_address                           
0002f511  UID_wr_byte                                    
2000d4e4  Unclean_occupied_count                         
00020f35  UpdateAsyncCardWord                            
00029c9d  Update_DFG_status                              
0001a631  Update_Parking_Clock_Screen                    
0001a513  Update_RTC_on_Display                          
0003a735  UsageFault_Handler                             
2000d635  VAC_ZERO_ELIGIBLE                              
2000b410  VCOM                                           
00038ce1  Validate_AES_key                               
00017f21  Validate_CivicSmart_Card_with_track1           
00018051  Validate_CivicSmart_Card_with_track2           
0002e639  Validate_Config_Parameters                     
000167dd  Validate_Credit_Card_with_track1               
00016399  Validate_Credit_Card_with_track2               
000365a1  Validate_LORA_Parametrs                        
0002e519  Validate_LORA_parameters                       
00002fe9  Validate_downloaded_AES_key                    
0002103d  VerifyAsyncCardWord                            
2000d4a0  WAITING_FOR_SMS_RESPONSE                       
2000cec5  WAKEUP_COIL_JAM_RAISED                         
4000480c  WDTCTL_SYM                                     
00027e1d  WDT_A_IRQHandler                               
00027e1d  WDT_A_IRQHandler                               
00039d61  WDT_A_clearTimer                               
00039d21  WDT_A_holdTimer                                
00039d9d  WDT_A_initIntervalTimer                        
00039d81  WDT_A_initWatchdogTimer                        
00039dd1  WDT_A_registerInterrupt                        
00039db9  WDT_A_setPasswordViolationReset                
00039dc5  WDT_A_setTimeoutReset                          
00039d41  WDT_A_startTimer                               
00039de5  WDT_A_unregisterInterrupt                      
2000cf4e  Waiting_4GPRS_Resp                             
2000cf8e  Waiting_4LORA_Resp                             
2000ceb2  WakeCountAdjust                                
2000cec6  Wakecount_adjust_interval                      
2000d640  ZERO_OUT                                       
2000d642  ZERO_OUT_ENABLE_AT_EXPIRY                      
00029305  Zero_Out_On_vacant                             
20010000  __STACK_END                                    
00000200  __STACK_SIZE                                   
0003ef70  __TI_CINIT_Base                                
0003ef88  __TI_CINIT_Limit                               
0003ef50  __TI_Handler_Table_Base                        
0003ef5c  __TI_Handler_Table_Limit                       
0003a6a1  __TI_auto_init_nobinit_nopinit                 
0003a351  __TI_decompress_lzss                           
0003ab17  __TI_decompress_none                           
0003a4cb  __TI_ltoa                                      
ffffffff  __TI_pprof_out_hndl                            
0002fe89  __TI_printfi                                   
ffffffff  __TI_prof_data_size                            
ffffffff  __TI_prof_data_start                           
00000000  __TI_static_base__                             
0003ab3d  __TI_zero_init                                 
0003a15d  __aeabi_cdcmpeq                                
0003a15d  __aeabi_cdcmple                                
0003a1e3  __aeabi_cdrcmple                               
0003a659  __aeabi_d2iz                                   
0003a6e5  __aeabi_d2uiz                                  
0003934f  __aeabi_dadd                                   
000397d1  __aeabi_ddiv                                   
00039b3d  __aeabi_dmul                                   
00039345  __aeabi_dsub                                   
0003ab55  __aeabi_errno_addr                             
0003a869  __aeabi_f2d                                    
0003a571  __aeabi_f2ulz                                  
0003a9a5  __aeabi_i2d                                    
000308d7  __aeabi_idiv0                                  
000308d7  __aeabi_ldiv0                                  
0003aa43  __aeabi_llsl                                   
0003a269  __aeabi_memclr                                 
0003a269  __aeabi_memclr4                                
0003a269  __aeabi_memclr8                                
0003a02b  __aeabi_memcpy                                 
0003a02b  __aeabi_memcpy4                                
0003a02b  __aeabi_memcpy8                                
0003a26b  __aeabi_memset                                 
0003a26b  __aeabi_memset4                                
0003a26b  __aeabi_memset8                                
0003aa23  __aeabi_ui2d                                   
0003a76b  __aeabi_uidiv                                  
0003a76b  __aeabi_uidivmod                               
0003a8a1  __aeabi_ul2f                                   
0003a0c7  __aeabi_uldivmod                               
ffffffff  __binit__                                      
ffffffff  __c_args__                                     
UNDEFED   __mpu_init                                     
2000fe00  __stack                                        
20000000  __start___llvm_prf_cnts                        
20000000  __stop___llvm_prf_cnts                         
0003a90d  _c_int00_noargs                                
0003e854  _ctypes_                                       
UNDEFED   _system_post_cinit                             
0003ab5d  _system_pre_init                               
0003ab61  abort                                          
2000cf38  accumulated_value_to_report1                   
2000abdb  acdb                                           
0002eaad  activate_a_flash_file                          
0002edc9  activate_config_file                           
2000cfea  activate_mpb_binary                            
2000cfbf  activate_mpb_binary_from_dk                    
2000cfe9  activate_mpb_config                            
2000cfc0  activate_pgm_rpg_ccf                           
2000d576  add_2_seconds                                  
2000cfaf  advanced_feature                               
2000cfb0  advanced_feature_count                         
0003a5c1  atoi                                           
0003a60d  atol                                           
2000cf04  averaged_max                                   
2000cf08  averaged_min                                   
2000cf0c  averaged_rat1                                  
2000cf10  averaged_rat2                                  
000204e9  balance_gemclub_memo_card                      
2000b3ce  base_freq                                      
00025311  batch_events_in_flash                          
2000d1a4  batch_start_address                            
2000d4f2  batt_vltg                                      
2000d5c4  batt_voltage_read_count                        
2000d492  bay_number_to_display                          
ffffffff  binit                                          
2000d47c  bits_count                                     
2000cf74  bkp_Events_count                               
2000b39c  bkp_MDM_Total_On_Time                          
2000b3a0  bkp_Total_LCD_Backlight_On_Time                
2000b3a4  bkp_Total_LORA_PWR_On_Time                     
2000b3a8  bkp_Total_LORA_PWR_On_Time_DC                  
2000cf6a  bkp_gprs_attempt                               
2000cf6c  bkp_gprs_success                               
2000cf6e  bkp_lora_attempt                               
2000cf70  bkp_lora_success                               
2000cf72  bkp_mdm_on                                     
2000cf68  bkp_original                                   
0003edc7  branch_version                                 
2000d2f6  bufferFlag                                     
0002f407  bus_port_init                                  
2000d4c4  cCount                                         
2000ce9a  cal_sens                                       
2000cf2c  cal_sens_t                                     
00039ec5  calc_crc32                                     
2000d3b4  calc_refund_amount                             
00039f31  calculate_chksum                               
2000d3d9  calibration_display_buf                        
00029943  call_xml_parse                                 
0003960f  cancel_sensor_counter                          
00038431  card_decode                                    
0003834f  card_encode                                    
2000d42f  card_removed_flag                              
0003ecb0  card_xxtea_key                                 
2000d451  cardread                                       
2000d452  cc_approved                                    
2000d42e  ccard_dataread_flag                            
2000d430  check_card_read                                
00017345  check_card_read_ok                             
00031b81  check_leep_year                                
0002e789  check_n_activate_files_from_flash              
00025155  check_valid_batched_OLTs                       
2000aecc  chunk_DNLD_status                              
2000cfba  clear_alarm_check                              
2000cfd2  clr_alarm                                      
2000ae10  cmd_send                                       
2000cf2e  coin_cal_sens_taken_from_last                  
2000b411  coin_count                                     
000114a7  coin_dropped                                   
2000cf30  coin_insert_ok                                 
2000cf1c  coin_invalid                                   
2000cf2f  coin_second_check_for_Min_value                
000113ad  coin_sensor_clear                              
0001146d  coin_sensor_init                               
000113ff  coin_sensor_off                                
000113c7  coin_sensor_on                                 
00011427  coin_sensor_test                               
2000aff4  coin_type                                      
2000cece  coin_type0                                     
2000ced0  coin_type1                                     
2000ced2  coin_type2                                     
2000ced4  coin_type3                                     
2000ced6  coin_type_invalid                              
2000cf18  coin_valid                                     
2000b412  coin_validation_number                         
000114bd  coin_wakeup                                    
2000cf20  coindrop_TimeOut_RTC                           
2000cfc4  comm_int_scrn                                  
2000cfc7  comm_int_scrn_count                            
2000967b  comm_queue                                     
2000cfd1  coms_info                                      
2000b3ac  config_RSAD                                    
2000b3b0  config_WSAD                                    
2000cfeb  config_update                                  
0001782d  construct_OLT_request                          
2000cfc9  copy_all_files                                 
2000cfb8  copy_files_screen                              
2000cfb7  copy_files_screen_count                        
2000cfbe  copy_lid_details                               
2000cfca  copy_only_config                               
2000cfcb  copy_only_mpb_firmware                         
0003aa7d  copysign                                       
0003aa7d  copysignl                                      
00017ac7  create_ref_id                                  
00016c2d  credit_card_insert_isr                         
2000d1cc  current_extracted_time                         
2000d380  current_rate_index                             
00032259  days_from_RTC                                  
2000ce94  dcd_error                                      
00038ad5  debug_out_UART                                 
000206d5  deduct_gemclub_memo_card                       
2000b289  default_UDP_server_ip                          
2000b3d0  default_UDP_server_port                        
2000b18a  default_apn                                    
2000d2b0  dfg_crc                                        
2000cf4f  dfs_done_ready_to_activate                     
0001bc75  diag_text_Screen                               
0003372d  disable_optical_LED_interrupt                  
00033a75  disable_telit_RI_interrupt                     
0003454d  discriminate_which_key                         
2000d45e  do_Alarms_Update                               
2000d460  do_CC_OLT                                      
2000d45f  do_Cash_Update                                 
2000d45d  do_Events_Update                               
2000cf7d  do_FD                                          
2000d45c  do_General_Sync                                
2000cfc6  do_RTC_EVT_AFM_HB                              
2000d461  do_SCT_Update                                  
2000d462  do_Sensor_Update                               
000320a5  do_daylight_saving                             
2000d463  do_file_update                                 
2000d485  do_not_allow_cc_auth                           
2000cfc8  do_not_copy_files                              
000002c9  do_request_internal                            
0002997d  download_file                                  
2000cf14  earned_time_in_seconds                         
2000d494  earned_time_in_seconds_temp                    
000336a7  enable_optical_LED_interrupt                   
00033a95  enable_telit_RI_interrupt                      
000203dd  end_read_card                                  
2000d5f8  err1                                           
2000d638  errno                                          
2000cfd9  evnt_day                                       
2000cfb9  exit_filemgr                                   
2000cfd3  exit_mainpg                                    
2000b3d2  fBitCnt1                                       
2000b3d4  fBitCnt2                                       
2000b3d6  fBitCnt3                                       
2000b3d8  fBitCntp                                       
2000b413  fBitsPerByteT1                                 
2000b414  fBitsPerByteT2                                 
2000b415  fBitsPerByteT3                                 
2000b416  fCharMask                                      
2000b417  fEndSentinelChar                               
2000b2c0  fLRCOnestrack1                                 
2000b2d0  fLRCOnestrack2                                 
2000b3da  fNotReadCardCnt                                
2000b3dc  fOneCnt1                                       
2000b3de  fOneCnt2                                       
2000b3e0  fOneCnt3                                       
2000b3e2  fOneCntp                                       
2000b3e4  fParityError1                                  
2000b3e6  fParityError2                                  
2000b3e8  fParityError3                                  
2000b3ea  fReadingCard                                   
2000b418  fStartSentinelChar                             
2000b419  fStartSentinelCharT3                           
2000911b  fTrack1Data                                    
2000ac39  fTrack1String                                  
200093cb  fTrack2Data                                    
2000ac91  fTrack2String                                  
2000b3ec  fTruncBitCnt1                                  
2000b3ee  fTruncBitCnt2                                  
2000b3f0  fTruncBitCnt3                                  
2000b3f2  fTruncBitCntp                                  
2000cecc  failed_coin_counter                            
2000d2a8  fd_start                                       
2000cfc3  file_manager_screen                            
2000b3b4  file_sizearr                                   
2000d25e  first_time_ws46_set_flag                       
2000d1a0  flag_check_addr                                
0001d47f  flash_Reset                                    
20008a97  flash_data_read_buffer                         
2000b01c  flash_file_actvn_tbl                           
2000ceb4  fluctuating_counts                             
0003cde4  font16x24                                      
0003ab64  font32x48                                      
0003e66c  fontGIF2                                       
0003e3e4  fontGIF3                                       
0003a3b9  frexp                                          
0003a3b9  frexpl                                         
2000ce98  gAutoCalibration                               
2000ce99  gSelfCalibration                               
20000000  g_pfnRAMVectors                                
000176b1  get_CC_data                                    
0001775d  get_CC_data2                                   
0001161b  get_Coin_Position                              
0001160f  get_Led_Rxd_val                                
00006519  get_RTC                                        
000113a1  get_Snsrdy_val                                 
0003610d  get_battery_voltage_temp                       
00032303  get_day_inyear                                 
00022ae5  get_earned_seconds                             
000322ed  get_number_day                                 
00031b21  get_offset_days                                
2000af6f  glAfm_response_p                               
2000b2ec  glAlarm_req                                    
2000ace9  glBay_req                                      
2000b3b8  glCCexpiry_date                                
2000cf3f  glClose_socket                                 
2000ce96  glCoin_Index                                   
2000cb98  glCoindata                                     
2000cf40  glComm_failure_count                           
2000aa11  glComm_response                                
2000b044  glCreditcard_frame                             
2000ad40  glCreditcard_frame1                            
2000d434  glCurrent_amount                               
20007ceb  glDFG_response                                 
2000b2f8  glDLST_FLAGS                                   
2000d5cf  glDLST_day                                     
2000d5d0  glDLST_hour                                    
2000d5ce  glDLST_month                                   
2000d5d2  glDLST_year                                    
2000b41a  glDo_rtc_update                                
2000a483  glEvent_cache                                  
2000ceaa  glIdx                                          
2000d220  glIn_diag_mode                                 
2000d644  glLast_reported_space_status                   
2000b106  glMB_info                                      
2000d222  glMdmUart_bytes_recvd                          
200081ff  glMdmUart_recv_buf                             
2000b2af  glOLTACK_req                                   
2000a5eb  glOLT_req                                      
2000ae90  glOLT_resp                                     
2000ae50  glSCReadBuf                                    
2000d4e8  glSNSR_TMP                                     
2000d261  glSNSRdiag_string                              
200064e8  glSystem_cfg                                   
2000b3bc  glTemp0                                        
2000b3f4  glTemp1                                        
2000b3f6  glTemp2                                        
2000b3f8  glTemp3                                        
2000b3fa  glTemp4                                        
2000aa91  glTemp_buf                                     
2000cf5a  glTotal_0_cents                                
2000cf58  glTotal_100_cents                              
2000cf54  glTotal_10_cents                               
2000cf56  glTotal_25_cents                               
2000cf52  glTotal_5_cents                                
2000cec0  glTotal_COIN_TransAmount                       
2000cf78  glTotal_Coin_Count                             
2000d3b8  glTotal_SCT_TransAmount                        
2000d3c0  glTotal_SCT_TransCount                         
2000cf76  glTotal_Valid_Coin_Count                       
2000d432  gl_CC_amount_selected                          
2000cfac  gl_Commission_Card                             
2000d5f0  gl_RTCHOUR                                     
2000d570  gl_Sensitivity1                                
000334a9  gpio_default_init                              
000010b1  gprs_do_Alarms                                 
00000dad  gprs_do_CT                                     
00029d89  gprs_do_DFS_4all_files                         
0000387d  gprs_do_LOB_BayStatus                          
00000b55  gprs_do_OLT                                    
00000a1d  gprs_do_OLTACK                                 
00002d49  gprs_do_SCT                                    
00029ac5  gprs_do_dfg                                    
00003079  gprs_do_get_General_Sync_request               
00000609  gprs_do_request                                
0000121d  gprs_do_send_event_cache                       
00029581  gprs_extract_time                              
00002bb9  gprs_file_actn_stat                            
000000e5  gprs_fill_request_hdr                          
000001e3  gprs_fill_response_hdr                         
2000ab11  gprs_general_sync_request                      
2000b06c  gprs_general_sync_response                     
0000018d  gprs_get_request_hdr                           
00002f51  gprs_push_notify                               
000017fd  gprs_send_diag_msg                             
2000d646  grace_time_trigger                             
2000d398  holiday_spl_event_found                        
2000d488  hours_to_display                               
2000d48a  hours_to_display_L                             
2000d48c  hours_to_display_R                             
2000d648  in_prepay_parking                              
0002db71  init_Config                                    
000339b9  init_DataKey_SPI_module_GPIO                   
0002c239  init_Enf_LED_GPIO                              
00038b65  init_IDTech_UART                               
000337a3  init_IDTech_card_reader_GPIO                   
0002c3fd  init_LEDs_PWM                                  
00038a73  init_SmartCard_UART                            
00033a39  init_Telit_GPIO                                
00038a11  init_Telit_UART                                
00033647  init_card_interrupt                            
00039655  init_coin_sample_counter_12mhz                 
00033593  init_cointrack_GPIO                            
00033a1d  init_debug_GPIO                                
000389d5  init_debug_UART                                
00033997  init_display_SPI_module_GPIO                   
00024cdd  init_event_cache                               
00033965  init_flash_SPI_module_GPIO                     
000337c7  init_keypad_GPIO                               
0003377b  init_mag_card_reader_GPIO                      
00033943  init_rchbattery_GPIO                           
00039627  init_sensor_counter_12mhz                      
00033899  init_smartcard_GPIO                            
00024091  initialise_queue                               
0000b3f1  initialise_tech_menu_param                     
00038003  initialize_all                                 
00017dc1  initiate_OLT                                   
00000000  interruptVectors                               
00038da9  isAESKeyExchangeRequired                       
2000cf24  jam                                            
2000d498  key_RL                                         
2000d5e8  key_press                                      
2000d45a  lCoinCount                                     
2000a53f  lCoindata                                      
2000cf48  last_LoRa_pktsent_time                         
2000d39c  last_amount_used_for_calc_in_CC                
2000cf42  last_downloaded_chunks                         
2000d3a8  last_lmax_time_allowed_in_CC                   
2000d5c2  last_minimum_vltg                              
2000d600  last_payment_try_time                          
2000cf44  last_pktsent_time                              
2000d1ac  last_pktsent_time_1                            
2000b348  last_refund_update                             
2000d608  last_vacant_timestamp                          
000198b1  lcd_vcom_pat                                   
00039a2d  ldexp                                          
00039a2d  ldexpl                                         
0002bc35  liberty_sprintf                                
0002b735  liberty_vsprintf                               
2000b29d  loCoinParam                                    
2000b428  loSensorSamples                                
2000d454  machinestate                                   
2000d449  mag_collection_card                            
2000d448  mag_technician_card                            
00028511  main                                           
2000cfcf  main_menu                                      
2000cfb4  maintenance_screen                             
2000cfb3  maintenance_scrn_count                         
2000ce9c  max_sens                                       
2000d38c  max_time_in_current_rate                       
2000d21c  mdm_comm_status                                
0000ee4d  mdm_enable_unsolicited_reg_results             
0000ec09  mdm_fetch_ICCID                                
0000dbbd  mdm_fetch_IMEI                                 
0000dc8d  mdm_fetch_IMSI                                 
0000df11  mdm_fetch_SPN                                  
0000dd59  mdm_fetch_SW_revision                          
0000de09  mdm_fetch_type                                 
0000ece9  mdm_find_response                              
0000f3ad  mdm_get_local_ip_port                          
0000f579  mdm_get_local_ip_port_for_FD_OTA               
0000edb9  mdm_get_signal_strength                        
0000c795  mdm_init                                       
0000c159  mdm_init_once_per_bootup                       
0000ee7f  mdm_nw_reg_check                               
0000d891  mdm_send_AT_command                            
0000dabf  mdm_send_data                                  
0003aa61  memccpy                                        
0003a9ff  memcmp                                         
0003a02b  memcpy                                         
0003a271  memset                                         
2000cfad  meter_out_of_service                           
2000cf34  min_col_counter_read1                          
2000d46e  min_count                                      
2000ce9e  min_sens                                       
2000cf1a  min_time_insec                                 
2000d388  minutes_left_in_current_schedule               
2000d38a  minutes_left_in_next_schedule                  
2000d489  minutes_to_display                             
2000d48b  minutes_to_display_L                           
2000d48d  minutes_to_display_R                           
2000d23c  modem_init_to_process_cc_transaction           
00031bef  month_length                                   
0002bc67  mpb_IS_DIGIT                                   
2000b3c0  mpb_code_RSAD                                  
2000b3c4  mpb_code_WSAD                                  
0002bc87  mpb_strnlen                                    
00038c87  multiple_block_aes_decrypt                     
00038c2d  multiple_block_aes_encrypt                     
2000b350  negetive_parking_time_left_on_meter            
2000d382  next_rate_index1                               
2000d383  next_rate_index2                               
2000d384  next_rate_index3                               
2000d385  next_rate_index4                               
2000d386  next_rate_index5                               
2000d39a  next_sched_minutes_left_in_current_schedule    
2000d62f  next_sched_rate_index                          
20009cc3  nw_operator_name_id                            
0000ef8d  nw_operator_name_id_check                      
2000d4e6  occupancygl                                    
2000d17c  olt_RSAD                                       
2000b41b  olt_sz                                         
2000d440  olt_time_taken                                 
2000b41c  packet_start                                   
2000d591  parking_clock                                  
2000d610  parking_time_left_on_meter                     
2000d618  parking_time_left_on_meter_prev                
00003311  parse_General_Sync_Response                    
00030a83  parse_xml                                      
2000d490  payment_on_hold                                
2000ce90  payment_on_hold_timeout                        
2000d300  pbc_amount_recvd                               
2000d304  pbc_expiry_time_recvd                          
000289e1  poll_space_status                              
00017819  pre_process_CC_payment                         
000198e3  printSharp16x24                                
00019ab5  printSharp32x48                                
00019cb1  printSharp32x48HfScr                           
00019f77  printSharp_Card                                
00038d47  processAesKey                                  
00003b31  process_LORA_Queue                             
00003ed1  process_RAM_Queue                              
2000d1b2  processwait                                    
00024e31  push_event_to_cache                            
2000d19a  queue_events                                   
2000d198  queue_pending                                  
2000cea2  ratio_1                                        
2000cea3  ratio_2                                        
00022089  read_and_fill_current_schedule                 
2000d5c5  read_count                                     
000395f7  read_sensor_counter                            
2000d64a  real_payment_flag                              
2000b3fc  received_area_num                              
2000d2ac  received_crc                                   
2000cf88  received_curr_id                               
2000b3fe  received_cust_id                               
2000b400  received_meter_id                              
0002174d  refund_gemclub_memo_card                       
0000c097  reinit_telit_Modem                             
20008e1b  request_events                                 
000395fd  reset_sensor_counter                           
2000cfbb  reset_timeout_count                            
2000d4dc  revert_parking_clock                           
2000b1e4  rtc_c_calender                                 
2000cfd4  rtc_day                                        
2000cfd7  rtc_hour                                       
2000b230  rtc_hour_flag                                  
2000cfd8  rtc_min                                        
2000cfd5  rtc_month                                      
2000cfd6  rtc_year                                       
2000a287  rx_ans                                         
2000d390  santa_cruz_previous_paid_time                  
2000cfc5  save_comm_interval_changes                     
2000cfc2  save_maintenance_log                           
00039a2d  scalbn                                         
00039a2d  scalbnl                                        
2000d394  sch_message_index_1                            
2000d395  sch_message_index_2                            
2000d396  sch_message_index_3                            
2000d397  sch_message_index_4                            
2000d2f8  scosta_smartcard_mode                          
2000cea0  sec_max                                        
2000cf29  second_check                                   
2000b3c8  sense                                          
2000d4eb  sensor_tnx_flag                                
0002f377  set_1wirebus_high                              
0002f3bf  set_1wirebus_low                               
2000d5cd  set_DLST                                       
2000d470  severe_events_send                             
2000d3b2  show_balance_and_deduct                        
2000b0e2  smart_card                                     
2000d2f7  smart_card_mode                                
0002121d  smartcard_encrypt                              
0002016d  smartcard_write                                
2000d2fc  special_key_count                              
2000b358  special_keys                                   
0003a7ad  sprintf                                        
0003f001  start_reprogram                                
000395e9  start_sensor_counter                           
0003aac7  strchr                                         
0003aaaf  strcmp                                         
0003aadd  strcpy                                         
0003aaf1  strlen                                         
0003a9d3  strncmp                                        
0003a8d7  strncpy                                        
0003a941  strstr                                         
0003edc6  sub_VERSION                                    
2000cef4  sum_max                                        
2000cef8  sum_min                                        
2000cefc  sum_rat1                                       
2000cf00  sum_rat2                                       
20009e67  sys_mdm_p                                      
2000d25d  t_mobile_apn_switch_flag                       
2000d4f0  t_mobile_selected_apn_retry_flag               
00007a75  tech_comm_intervals                            
00006781  tech_mechanism_and_datakey_files               
00006a29  tech_mechanism_files                           
2000b129  tech_menu_disp                                 
000070c1  tech_meter_info_first_page                     
000074fd  tech_meter_info_second_page                    
2000cfbd  tech_mode_timeout                              
0000c8b9  telit_init                                     
0000bf99  telit_power_off                                
0000c009  telit_power_on                                 
0000c0b7  telit_reinit                                   
0000cb6d  telit_set_pdpcontext                           
0000d709  telit_sock_close                               
0000d189  telit_sock_open                                
0000f81d  telit_sock_open_states                         
0000d7d1  telit_sock_send                                
0000c075  telit_wakeup_sleep                             
2000b402  temp1_max_sens                                 
2000b404  temp1_min_sens                                 
2000b41d  temp1_ratio_1                                  
2000b41e  temp1_ratio_2                                  
2000b406  temp2_max_sens                                 
2000b408  temp2_min_sens                                 
2000b41f  temp2_ratio_1                                  
2000b420  temp2_ratio_2                                  
2000d5ac  tempC                                          
2000b304  temp_buff                                      
2000b421  temp_co                                        
2000b094  temp_coin_type                                 
2000ceda  temp_coin_type0                                
2000cedc  temp_coin_type1                                
2000cede  temp_coin_type2                                
2000cee0  temp_coin_type3                                
2000ced8  temp_coin_type_invalid                         
2000cf7c  temp_max                                       
2000d48e  temp_minutes_to_disp                           
2000cee8  temp_total_coin_values                         
00036567  test_radio                                     
2000d399  this_is_a_CC                                   
2000d64c  time_retain                                    
2000cee4  total_coin_values                              
0002a173  validate_asynchronous_FD                       
2000cf3d  wait_counter                                   
0002f34d  wait_delay                                     
2000cf85  waiting_for_batch_response                     
2000ceb6  wakecounts                                     
2000cec8  wakecountsTest                                 
2000ceae  wakecounts_to_check_update                     
2000cf28  wakeup_skip                                    
2000cf26  wakeup_temp                                    
00037fa5  watchdog_init                                  
0002851d  watchdog_pat                                   
0003ab05  wcslen                                         
2000d2f0  wdt_base_Counter                               
2000d25f  ws46_selected_value                            
2000d260  ws46_selected_value_temp                       
0003214d  year_from_RTC                                  


GLOBAL SYMBOLS: SORTED BY Symbol Address 

address   name                                           
-------   ----                                           
00000000  __TI_static_base__                             
00000000  interruptVectors                               
000000e5  gprs_fill_request_hdr                          
0000018d  gprs_get_request_hdr                           
000001e3  gprs_fill_response_hdr                         
00000200  __STACK_SIZE                                   
000002c9  do_request_internal                            
00000609  gprs_do_request                                
00000a1d  gprs_do_OLTACK                                 
00000b55  gprs_do_OLT                                    
00000dad  gprs_do_CT                                     
000010b1  gprs_do_Alarms                                 
0000121d  gprs_do_send_event_cache                       
000017fd  gprs_send_diag_msg                             
00002bb9  gprs_file_actn_stat                            
00002d49  gprs_do_SCT                                    
00002f51  gprs_push_notify                               
00002fe9  Validate_downloaded_AES_key                    
00003079  gprs_do_get_General_Sync_request               
00003311  parse_General_Sync_Response                    
00003689  Trigger_Asynchronous_FD                        
0000387d  gprs_do_LOB_BayStatus                          
00003b31  process_LORA_Queue                             
00003ed1  process_RAM_Queue                              
0000436d  Handle_GPRS_Response                           
00004d25  Transactions_via_LoRa                          
00004ec1  Send_Audit_Via_Temp_GW                         
000052dd  Process_Incoming_Sensor_Response               
0000625d  Handle_LORA_Response                           
000062e1  Send_ACK2Node                                  
00006389  PBC_TO_OTHER_METER                             
00006519  get_RTC                                        
0000659d  Clear_all_active_alarms                        
00006631  TechMenu_Display_Main_Menu                     
00006781  tech_mechanism_and_datakey_files               
00006a29  tech_mechanism_files                           
00006dd9  TechMenu_Get_RTC_update_time                   
00006e35  TechMenu_Get_Event_Update_Time                 
00006ee9  Technician_Menu_Information                    
000070c1  tech_meter_info_first_page                     
000074fd  tech_meter_info_second_page                    
00007a75  tech_comm_intervals                            
00008811  TechMenu_ProcessKey_UP_In_TechMode             
000093f9  TechMenu_ProcessKey_DOWN_In_TechMode           
00009eb9  TechMenu_ProcessKey_OK_In_TechMode             
0000a8c5  TechMenu_ProcessKey_CANCEL_In_TechMode         
0000b3f1  initialise_tech_menu_param                     
0000b4d1  Copy_all_flash_files_to_datakey                
0000b587  Copy_all_files_to_mechanism                    
0000b659  Copy_only_MPB_config_2mech                     
0000b885  Copy_only_MPB_firmware_2mech                   
0000ba51  Copy_only_MPB_config_2DK                       
0000bc29  Copy_only_MPB_firmware_2DK                     
0000bd5d  Meter_Out_of_service                           
0000bd95  Meter_In_Service                               
0000be8d  TELIT_POWER_ON                                 
0000bf07  TELIT_POWER_OFF                                
0000bf89  TELIT_POWER_ENABLE                             
0000bf91  TELIT_POWER_DISABLE                            
0000bf99  telit_power_off                                
0000c009  telit_power_on                                 
0000c075  telit_wakeup_sleep                             
0000c097  reinit_telit_Modem                             
0000c0b7  telit_reinit                                   
0000c159  mdm_init_once_per_bootup                       
0000c795  mdm_init                                       
0000c8b9  telit_init                                     
0000cb6d  telit_set_pdpcontext                           
0000d189  telit_sock_open                                
0000d709  telit_sock_close                               
0000d7d1  telit_sock_send                                
0000d891  mdm_send_AT_command                            
0000dabf  mdm_send_data                                  
0000dbbd  mdm_fetch_IMEI                                 
0000dc8d  mdm_fetch_IMSI                                 
0000dd59  mdm_fetch_SW_revision                          
0000de09  mdm_fetch_type                                 
0000df11  mdm_fetch_SPN                                  
0000ec09  mdm_fetch_ICCID                                
0000ece9  mdm_find_response                              
0000edb9  mdm_get_signal_strength                        
0000ee4d  mdm_enable_unsolicited_reg_results             
0000ee7f  mdm_nw_reg_check                               
0000ef8d  nw_operator_name_id_check                      
0000f3ad  mdm_get_local_ip_port                          
0000f579  mdm_get_local_ip_port_for_FD_OTA               
0000f81d  telit_sock_open_states                         
00010249  Modem_Recovery_Loop                            
00010345  Read_Mdm_diag_data                             
000105a9  Init_SMS_Mode                                  
00010781  Send_SMS_request                               
00010a49  Extract_SMSCFG_Details                         
00010d4d  Read_Validate_SMS                              
00011031  Special_Test_AT_Commands                       
000113a1  get_Snsrdy_val                                 
000113ad  coin_sensor_clear                              
000113c7  coin_sensor_on                                 
000113ff  coin_sensor_off                                
00011427  coin_sensor_test                               
0001146d  coin_sensor_init                               
000114a7  coin_dropped                                   
000114bd  coin_wakeup                                    
0001160f  get_Led_Rxd_val                                
0001161b  get_Coin_Position                              
000116e9  Check_Coin_Jam_Alarm                           
0001198d  Coin_WakeCount_adjustment                      
00011b2f  GetCoinParameters                              
00011bc9  GetMultipartCoinParameters                     
00011c4d  SensorRead                                     
00011cd5  CalculateCoinRatios                            
00011da1  FindMinSensorValue                             
00012031  FindMaxSensorValue                             
000120c9  GetDroppedCoinParameters                       
00012889  CoinValidation                                 
000131ad  SortanArray_ByValue                            
00013291  Coin_Calibration_Mode                          
00014185  Coin_Self_Calibration_Mode                     
000149cd  ProcessValidatedCoin                           
00015099  CoinOk                                         
00015a25  InitForNewRead                                 
00015a81  Track1DataToString                             
00015ca5  Track2DataToString                             
00015ea3  Track3DataToString                             
00015ea9  SufficientData                                 
00015f0d  ReadMagStripeTrackp                            
00015fa9  ReadMagStripeTrack1                            
00016045  ReadMagStripeTrack2                            
000160e5  ReadMagStripeTrack3                            
00016173  PrepareForRead                                 
000161ad  FinishRead                                     
00016205  RecordTrackData                                
00016299  PullDataFromMagCard                            
000162c1  GetMagDataFromIC                               
00016399  Validate_Credit_Card_with_track2               
000167dd  Validate_Credit_Card_with_track1               
00016c2d  credit_card_insert_isr                         
00017345  check_card_read_ok                             
000174c5  CredCardCheckFormat                            
00017599  CredCardCheckFormat2                           
000176b1  get_CC_data                                    
0001775d  get_CC_data2                                   
00017819  pre_process_CC_payment                         
0001782d  construct_OLT_request                          
00017ac7  create_ref_id                                  
00017b61  Handle_OLT_response                            
00017dc1  initiate_OLT                                   
00017f21  Validate_CivicSmart_Card_with_track1           
00018051  Validate_CivicSmart_Card_with_track2           
00018171  StartTrnsaction                                
000184f1  IdtechTXFormat                                 
00018605  TxData                                         
00018663  AuthenticateTranscation                        
00018665  CompleteTranscation                            
00018667  CancelTranscation                              
000186c5  GetAtr                                         
000187b7  Start                                          
00018859  LoadDefaultValue                               
000197c5  Parse_PBC_Payment                              
000198b1  lcd_vcom_pat                                   
000198e3  printSharp16x24                                
00019ab5  printSharp32x48                                
00019cb1  printSharp32x48HfScr                           
00019f77  printSharp_Card                                
0001a0b9  SPIWriteLine                                   
0001a11b  SPIWriteRLELine_mod                            
0001a3c5  SPIWriteRLELine                                
0001a4ed  Clear_Screen                                   
0001a513  Update_RTC_on_Display                          
0001a631  Update_Parking_Clock_Screen                    
0001a9d1  AUDIT_Screen                                   
0001aa69  Noparking_Screen                               
0001aa93  Freeparking_Screen                             
0001aabd  CardReadFail_Screen                            
0001abfd  ShowAmount_Screen                              
0001b0b9  Authorizing_Screen                             
0001b0f7  ReadCard_Screen                                
0001b127  MeterFull_Screen                               
0001b181  AntiFeed_Screen                                
0001b1a7  AUDIT_In_Progress_Screen                       
0001b1ff  AUDIT_Card_Full_Screen                         
0001b261  AUDIT_Append_Failed_Screen                     
0001b311  CC_Payment_Approved_Screen                     
0001b405  SC_Payment_Approved_Screen                     
0001b571  CC_Payment_Declined_Screen                     
0001b5b1  CC_Card_Expired_Screen                         
0001b601  SC_Card_Invalid_Screen                         
0001b643  SC_Card_Low_Fund_Screen                        
0001b6a1  SC_Payment_Disabled_Screen                     
0001b6ed  Card_Not_Supported_Screen                      
0001b749  Coin_Calibration_Screen                        
0001b949  Idle_Screen                                    
0001bbf9  Remove_Card_Screen                             
0001bc31  Meter_Out_Of_Serice_Screen                     
0001bc75  diag_text_Screen                               
0001bd85  LCD_Backlight                                  
0001bfe1  Check_LCD_Backlight_Power_Save_Hours           
0001c101  RefundShowAmount_Screen                        
0001c1f7  RemoveDatakey_Screen                           
0001c223  DSM_Screen7                                    
0001c2b5  DSM_Screen6                                    
0001c39d  DSM_Screen5                                    
0001c451  DSM_Screen4                                    
0001c5d9  DSM_Screen3                                    
0001cd6d  DSM_Screen2                                    
0001d22d  DSM_Screen1                                    
0001d421  Release_Power_Down                             
0001d457  Flash_Power_Down                               
0001d47f  flash_Reset                                    
0001d4a9  Erase_Security_Registers                       
0001d4d1  Flash_Read_Device_ID                           
0001d6ad  Flash_Read_Unique_ID                           
0001d989  Flash_Batch_Erase                              
0001dcf5  Flash_Read                                     
0001ddc5  Flash_Write                                    
0001e04f  Flash_Batch_Flag_Read                          
0001e595  Flash_Batch_Flag_Write                         
0001ea09  Flash_RTC_ParkingClock_Storage                 
0001eeb5  Flash_Coin_Calibration_Params                  
0001f7c5  Coin_Only_Audit_to_Flash                       
0001fa4d  Smart_Card_Reset                               
0001fa95  Identify_Smart_Card_Type                       
0002016d  smartcard_write                                
000202bd  Process_smart_card_payment                     
000203dd  end_read_card                                  
000204e9  balance_gemclub_memo_card                      
000206d5  deduct_gemclub_memo_card                       
00020af5  AuthenticateDuncanAsyncCard                    
00020d65  RetrieveBalanceDuncanAsyncCard                 
00020e0d  DeductAmountDuncanAsyncCard                    
00020f35  UpdateAsyncCardWord                            
0002103d  VerifyAsyncCardWord                            
0002110d  ReadAsyncCardWord                              
00021179  SYNCardReadCardID                              
00021195  GEMCardSetCardID                               
000211af  SYNCard_SaveDeductRefundValue                  
000211bf  SYNCardReadDeductRedundValue                   
0002121d  smartcard_encrypt                              
000214e1  Refund_CardSN                                  
000214fd  Refund_CampareSN                               
0002153b  Refund_SNcheck_timeleft                        
00021631  RefundAmountDuncanAsyncCard                    
0002174d  refund_gemclub_memo_card                       
00021a0d  SCOSTA_smartcard_write                         
00021b85  SCOSTA_WriteAsyncCardWord                      
00021e6d  SCOSTA_ReadAsyncCardWord                       
00022089  read_and_fill_current_schedule                 
00022ae5  get_earned_seconds                             
00023edd  Refund_get_earned_amount                       
00024091  initialise_queue                               
00024421  Queue_Request                                  
00024cdd  init_event_cache                               
00024e31  push_event_to_cache                            
00025155  check_valid_batched_OLTs                       
00025311  batch_events_in_flash                          
000255a9  New_process_queue                              
00025c39  Switch_States                                  
00025c4b  Initialise_State                               
00025cf9  Idle_State                                     
00025e93  Meter_In_LPM3_State                            
00025f11  Prioritize_Interrupt_State                     
0002611d  Check_Comms_Intervals_State                    
00026aad  Take_Meter_Diag_State                          
00026b89  Start_UDP_Comms_State                          
00026f39  Read_Credit_Card_State                         
00026f75  Identify_Key_State                             
00027061  RTC_Minutes_ISR_State                          
00027209  Process_RAMQ_Comms_State                       
00027267  Process_LoRa_Comms_State                       
00027361  TA0_0_IRQHandler                               
00027361  TA0_0_IRQHandler                               
00027369  TA1_0_IRQHandler                               
00027369  TA1_0_IRQHandler                               
00027377  TA2_0_IRQHandler                               
00027377  TA2_0_IRQHandler                               
00027385  TA3_0_IRQHandler                               
00027385  TA3_0_IRQHandler                               
000273a1  EUSCIA0_IRQHandler                             
000273a1  EUSCIA0_IRQHandler                             
000276d9  EUSCIA1_IRQHandler                             
000276d9  EUSCIA1_IRQHandler                             
000276e1  EUSCIA2_IRQHandler                             
000276e1  EUSCIA2_IRQHandler                             
00027719  EUSCIA3_IRQHandler                             
00027719  EUSCIA3_IRQHandler                             
000278d7  EUSCIB0_IRQHandler                             
000278d7  EUSCIB0_IRQHandler                             
000278f9  EUSCIB1_IRQHandler                             
000278f9  EUSCIB1_IRQHandler                             
00027909  EUSCIB2_IRQHandler                             
00027909  EUSCIB2_IRQHandler                             
00027911  EUSCIB3_IRQHandler                             
00027911  EUSCIB3_IRQHandler                             
00027919  ADC14_IRQHandler                               
00027919  ADC14_IRQHandler                               
00027921  RTC_C_IRQHandler                               
00027921  RTC_C_IRQHandler                               
0002793d  PORT1_IRQHandler                               
0002793d  PORT1_IRQHandler                               
000279a9  PORT2_IRQHandler                               
000279a9  PORT2_IRQHandler                               
00027c61  PORT3_IRQHandler                               
00027c61  PORT3_IRQHandler                               
00027cf1  PORT4_IRQHandler                               
00027cf1  PORT4_IRQHandler                               
00027d05  PORT5_IRQHandler                               
00027d05  PORT5_IRQHandler                               
00027d0d  PORT6_IRQHandler                               
00027d0d  PORT6_IRQHandler                               
00027e1d  WDT_A_IRQHandler                               
00027e1d  WDT_A_IRQHandler                               
00028511  main                                           
0002851d  watchdog_pat                                   
0002853f  MSP_Status_Check                               
000286f9  Display_Meter_Info                             
000289e1  poll_space_status                              
00029305  Zero_Out_On_vacant                             
00029581  gprs_extract_time                              
00029871  AFM_XML_parser_start_element_callback          
00029943  call_xml_parse                                 
0002997d  download_file                                  
00029ac5  gprs_do_dfg                                    
00029c9d  Update_DFG_status                              
00029d89  gprs_do_DFS_4all_files                         
0002a173  validate_asynchronous_FD                       
0002a2d1  Prepare_Flash_4FD                              
0002a3fd  Calculate_File_CRC_4mflash                     
0002a83d  CS_setExternalClockSourceFrequency             
0002a879  CS_initClockSignal                             
0002a97d  CS_startHFXT                                   
0002a9a1  CS_startHFXTWithTimeout                        
0002aa65  CS_startLFXT                                   
0002aa89  CS_startLFXTWithTimeout                        
0002ab59  CS_enableClockRequest                          
0002ab81  CS_disableClockRequest                         
0002aba3  CS_setReferenceOscillatorFrequency             
0002abc9  CS_enableDCOExternalResistor                   
0002abf1  CS_setDCOExternalResistorCalibration           
0002ac67  CS_disableDCOExternalResistor                  
0002ac85  CS_setDCOCenteredFrequency                     
0002acbd  CS_tuneDCOFrequency                            
0002ad61  CS_getDCOFrequency                             
0002af01  CS_setDCOFrequency                             
0002b0d9  CS_getBCLK                                     
0002b0f5  CS_getHSMCLK                                   
0002b119  CS_getACLK                                     
0002b13d  CS_getSMCLK                                    
0002b15f  CS_getMCLK                                     
0002b181  CS_enableFaultCounter                          
0002b1ad  CS_disableFaultCounter                         
0002b1d9  CS_resetFaultCounter                           
0002b225  CS_startFaultCounter                           
0002b275  CS_enableInterrupt                             
0002b297  CS_disableInterrupt                            
0002b2b9  CS_getInterruptStatus                          
0002b2bf  CS_getEnabledInterruptStatus                   
0002b2d9  CS_clearInterruptFlag                          
0002b2fb  CS_registerInterrupt                           
0002b30f  CS_unregisterInterrupt                         
0002b325  CS_init_ACLK                                   
0002b3a1  CS_init_SMCLK                                  
0002b3d3  CS_init_MCLK                                   
0002b415  CS_init_HSMCLK                                 
0002b4e1  Debug_TextOut                                  
0002b4ff  Debug_Output1                                  
0002b535  Debug_Output2                                  
0002b575  Debug_Output6                                  
0002b5c5  Debug_Display                                  
0002b735  liberty_vsprintf                               
0002bc35  liberty_sprintf                                
0002bc67  mpb_IS_DIGIT                                   
0002bc87  mpb_strnlen                                    
0002c239  init_Enf_LED_GPIO                              
0002c3fd  init_LEDs_PWM                                  
0002cf05  SX1276LoRaInit                                 
0002d0e7  SX1276LoRaSetDefaults                          
0002d0f7  SX1276LoRaReset                                
0002d129  SX1276LoRaSetOpMode                            
0002d191  SX1276LoRaGetOpMode                            
0002d1ab  SX1276LoRaReadRxGain                           
0002d1c5  SX1276LoRaReadRssi                             
0002d211  SX1276LoRaGetPacketRxGain                      
0002d217  SX1276LoRaGetPacketSnr                         
0002d225  SX1276LoRaGetPacketRssi                        
0002d239  SX1276LoRaStartRx                              
0002d25d  SX1276LoRaGetRxPacket                          
0002d291  SX1276LoRaSetTxPacket                          
0002d2b5  SX1276LoRaGetRFState                           
0002d2d5  SX1276LoRaSetRFState                           
0002d2ed  SX1276LoRaCheckTXState                         
0002d339  SX1276LoRaProcess                              
0002dab9  IDBasedFreqCalculation                         
0002db71  init_Config                                    
0002e415  Assign_Lora_parameters                         
0002e519  Validate_LORA_parameters                       
0002e639  Validate_Config_Parameters                     
0002e789  check_n_activate_files_from_flash              
0002eaad  activate_a_flash_file                          
0002edc9  activate_config_file                           
0002f34d  wait_delay                                     
0002f377  set_1wirebus_high                              
0002f3bf  set_1wirebus_low                               
0002f407  bus_port_init                                  
0002f467  UID_init                                       
0002f511  UID_wr_byte                                    
0002f5a1  UID_rd_byte                                    
0002f643  UID_read_net_address                           
0002f6b1  UID_Write_scrathpad                            
0002f775  UID_Read_scrathpad                             
0002f821  UID_Copy_Scratchpad                            
0002f899  UID_Write_Mem                                  
0002f9f3  UID_Read_Mem                                   
0002fa8b  Read_UIDKey                                    
0002fe89  __TI_printfi                                   
000308d7  __aeabi_idiv0                                  
000308d7  __aeabi_ldiv0                                  
00030a83  parse_xml                                      
00031355  ADC14_enableModule                             
0003135d  ADC14_disableModule                            
00031373  ADC14_enableSampleTimer                        
0003139d  ADC14_disableSampleTimer                       
000313b3  ADC14_initModule                               
000313f9  ADC14_setResolution                            
00031413  ADC14_getResolution                            
0003141d  ADC14_setSampleHoldTrigger                     
0003145f  ADC14_setSampleHoldTime                        
00031489  ADC14_configureMultiSequenceMode               
0003151f  ADC14_configureSingleSampleMode                
00031575  ADC14_enableConversion                         
00031595  ADC14_toggleConversionTrigger                  
000315b7  ADC14_disableConversion                        
000315c3  ADC14_isBusy                                   
000315e1  ADC14_configureConversionMemory                
00031689  ADC14_enableComparatorWindow                   
00031719  ADC14_disableComparatorWindow                  
00031777  ADC14_setComparatorWindowValue                 
000317fd  ADC14_setResultFormat                          
00031827  ADC14_getResult                                
00031841  ADC14_getMultiSequenceResult                   
000318ad  ADC14_getResultArray                           
00031921  ADC14_enableReferenceBurst                     
00031937  ADC14_disableReferenceBurst                    
0003194d  ADC14_setPowerMode                             
0003198f  ADC14_enableInterrupt                          
000319b7  ADC14_disableInterrupt                         
000319df  ADC14_getInterruptStatus                       
00031a03  ADC14_getEnabledInterruptStatus                
00031a39  ADC14_clearInterruptFlag                       
00031a65  ADC14_registerInterrupt                        
00031a79  ADC14_unregisterInterrupt                      
00031ac1  RTC_epoch_now                                  
00031b21  get_offset_days                                
00031b81  check_leep_year                                
00031bef  month_length                                   
00031c71  RTC_from_year                                  
00031d2d  SetMSP_RTC                                     
000320a5  do_daylight_saving                             
0003214d  year_from_RTC                                  
00032259  days_from_RTC                                  
000322ed  get_number_day                                 
00032303  get_day_inyear                                 
000323bd  SPI_initMaster                                 
00032483  SPI_selectFourPinFunctionality                 
000324a9  SPI_changeMasterClock                          
000324d1  SPI_initSlave                                  
0003254f  SPI_changeClockPhasePolarity                   
0003257f  SPI_transmitData                               
000325a5  SPI_receiveData                                
000325c1  SPI_enableModule                               
000325dd  SPI_disableModule                              
000325f9  SPI_getReceiveBufferAddressForDMA              
00032615  SPI_getTransmitBufferAddressForDMA             
00032641  SPI_isBusy                                     
0003265d  SPI_enableInterrupt                            
00032683  SPI_disableInterrupt                           
000326a9  SPI_getInterruptStatus                         
000326d1  SPI_getEnabledInterruptStatus                  
00032701  SPI_clearInterruptFlag                         
00032727  SPI_registerInterrupt                          
000327e5  SPI_unregisterInterrupt                        
00032891  EUSCI_B_SPI_select4PinFunctionality            
000328b1  EUSCI_B_SPI_masterChangeClock                  
000328e3  EUSCI_B_SPI_slaveInit                          
0003292d  EUSCI_B_SPI_changeClockPhasePolarity           
0003296f  EUSCI_B_SPI_transmitData                       
00032985  EUSCI_B_SPI_receiveData                        
00032995  EUSCI_B_SPI_enableInterrupt                    
000329af  EUSCI_B_SPI_disableInterrupt                   
000329c9  EUSCI_B_SPI_getInterruptStatus                 
000329e1  EUSCI_B_SPI_clearInterruptFlag                 
000329fb  EUSCI_B_SPI_enable                             
00032a11  EUSCI_B_SPI_disable                            
00032a27  EUSCI_B_SPI_getReceiveBufferAddressForDMA      
00032a35  EUSCI_B_SPI_getTransmitBufferAddressForDMA     
00032a43  EUSCI_B_SPI_isBusy                             
00032a5b  EUSCI_A_SPI_select4PinFunctionality            
00032a7b  EUSCI_A_SPI_masterChangeClock                  
00032ab1  EUSCI_A_SPI_slaveInit                          
00032afb  EUSCI_A_SPI_changeClockPhasePolarity           
00032b3d  EUSCI_A_SPI_transmitData                       
00032b53  EUSCI_A_SPI_receiveData                        
00032b63  EUSCI_A_SPI_enableInterrupt                    
00032b7d  EUSCI_A_SPI_disableInterrupt                   
00032b97  EUSCI_A_SPI_getInterruptStatus                 
00032baf  EUSCI_A_SPI_clearInterruptFlag                 
00032bc9  EUSCI_A_SPI_enable                             
00032bdf  EUSCI_A_SPI_disable                            
00032bf5  EUSCI_A_SPI_getReceiveBufferAddressForDMA      
00032c03  EUSCI_A_SPI_getTransmitBufferAddressForDMA     
00032c11  EUSCI_A_SPI_isBusy                             
00032c31  SX1276LoRaSetRFFrequency                       
00032c83  SX1276LoRaGetRFFrequency                       
00032ccf  SX1276LoRaSetRFPower                           
00032e0f  SX1276LoRaGetRFPower                           
00032e7f  SX1276LoRaSetSignalBandwidth                   
00032ebb  SX1276LoRaGetSignalBandwidth                   
00032ee5  SX1276LoRaSetSpreadingFactor                   
00032f61  SX1276LoRaGetSpreadingFactor                   
00032f85  SX1276LoRaSetErrorCoding                       
00032fc5  SX1276LoRaGetErrorCoding                       
00032fe9  SX1276LoRaSetPacketCrcOn                       
00033029  SX1276LoRaSetPreambleLength                    
0003306d  SX1276LoRaGetPreambleLength                    
00033099  SX1276LoRaGetPacketCrcOn                       
000330c3  SX1276LoRaSetImplicitHeaderOn                  
00033101  SX1276LoRaGetImplicitHeaderOn                  
0003312d  SX1276LoRaSetRxSingleOn                        
00033141  SX1276LoRaGetRxSingleOn                        
00033147  SX1276LoRaSetFreqHopOn                         
0003315b  SX1276LoRaGetFreqHopOn                         
00033161  SX1276LoRaSetHopPeriod                         
0003318b  SX1276LoRaGetHopPeriod                         
000331ab  SX1276LoRaSetTxPacketTimeout                   
000331bb  SX1276LoRaGetTxPacketTimeout                   
000331c1  SX1276LoRaSetRxPacketTimeout                   
000331d5  SX1276LoRaGetRxPacketTimeout                   
000331db  SX1276LoRaSetPayloadLength                     
00033205  SX1276LoRaGetPayloadLength                     
00033229  SX1276LoRaSetPa20dBm                           
00033285  SX1276LoRaGetPa20dBm                           
000332b5  SX1276LoRaSetPAOutput                          
000332eb  SX1276LoRaGetPAOutput                          
00033309  SX1276LoRaSetPaRamp                            
0003333f  SX1276LoRaGetPaRamp                            
00033359  SX1276LoRaSetSymbTimeout                       
000333a3  SX1276LoRaGetSymbTimeout                       
000333cb  SX1276LoRaSetLowDatarateOptimize               
0003340d  SX1276LoRaGetLowDatarateOptimize               
0003343d  SX1276LoRaSetNbTrigPeaks                       
00033479  SX1276LoRaGetNbTrigPeaks                       
000334a9  gpio_default_init                              
00033593  init_cointrack_GPIO                            
00033647  init_card_interrupt                            
000336a7  enable_optical_LED_interrupt                   
0003372d  disable_optical_LED_interrupt                  
0003377b  init_mag_card_reader_GPIO                      
000337a3  init_IDTech_card_reader_GPIO                   
000337c7  init_keypad_GPIO                               
00033899  init_smartcard_GPIO                            
000338f1  Turn_Off_card_IOs                              
00033943  init_rchbattery_GPIO                           
00033965  init_flash_SPI_module_GPIO                     
00033997  init_display_SPI_module_GPIO                   
000339b9  init_DataKey_SPI_module_GPIO                   
00033a1d  init_debug_GPIO                                
00033a39  init_Telit_GPIO                                
00033a75  disable_telit_RI_interrupt                     
00033a95  enable_telit_RI_interrupt                      
00033ac7  BKLT_ON                                        
00033adb  BKLT_OFF                                       
00033b15  MAG_1_POWER_ON                                 
00033b21  MAG_1_POWER_OFF                                
00033b2d  IDTech_POWER_OFF                               
00033b41  IDTech_POWER_ON                                
00033b59  MDM_DTR_set                                    
00033b65  MDM_DTR_clr                                    
00033b71  MDM_REG_CNTRL_set                              
00033b7d  MDM_REG_CNTRL_clr                              
00033b8d  MDM_Tel_ON                                     
00033b99  MDM_Tel_OFF                                    
00033ba5  MDM_RST_set                                    
00033bb1  MDM_RST_clr                                    
00033bbd  Display_Init_SWSPI                             
00033bf7  LORA_power_on                                  
00033c25  LORA_power_off                                 
00033e0b  PCM_setCoreVoltageLevel                        
00033e1b  PCM_setCoreVoltageLevelWithTimeout             
00033e2d  PCM_setCoreVoltageLevelNonBlocking             
00033e3d  PCM_getPowerMode                               
00033e97  PCM_getCoreVoltageLevel                        
0003403d  PCM_setPowerMode                               
0003404d  PCM_setPowerModeNonBlocking                    
0003405d  PCM_setPowerModeWithTimeout                    
0003430f  PCM_setPowerState                              
0003431f  PCM_setPowerStateWithTimeout                   
00034331  PCM_setPowerStateNonBlocking                   
00034341  PCM_shutdownDevice                             
00034385  PCM_gotoLPM4                                   
00034395  PCM_gotoLPM4InterruptSafe                      
000343b1  PCM_gotoLPM0                                   
000343cf  PCM_gotoLPM0InterruptSafe                      
000343eb  PCM_gotoLPM3                                   
00034463  PCM_gotoLPM3InterruptSafe                      
0003447f  PCM_getPowerState                              
0003448b  PCM_enableRudeMode                             
0003449d  PCM_disableRudeMode                            
000344b1  PCM_enableInterrupt                            
000344c5  PCM_disableInterrupt                           
000344d9  PCM_getInterruptStatus                         
000344df  PCM_getEnabledInterruptStatus                  
000344ef  PCM_clearInterruptFlag                         
00034503  PCM_registerInterrupt                          
00034517  PCM_unregisterInterrupt                        
0003454d  discriminate_which_key                         
000346d1  Debounce                                       
00034721  Process_keypress                               
00034e59  Timer_A_startCounter                           
00034e6f  Timer_A_configureContinuousMode                
00034e9f  Timer_A_configureUpMode                        
00034efd  Timer_A_configureUpDownMode                    
00034f5b  Timer_A_initCapture                            
00034fad  Timer_A_initCompare                            
00034ffb  Timer_A_getCounterValue                        
00035047  Timer_A_clearTimer                             
0003505b  Timer_A_getSynchronizedCaptureCompareInput     
0003508b  Timer_A_getOutputForOutputModeOutBitValue      
000350b9  Timer_A_getCaptureCompareCount                 
000350db  Timer_A_setOutputForOutputModeOutBitValue      
00035113  Timer_A_generatePWM                            
00035189  Timer_A_stopTimer                              
0003519d  Timer_A_setCompareValue                        
000351c9  Timer_A_clearInterruptFlag                     
000351df  Timer_A_clearCaptureCompareInterrupt           
00035207  Timer_A_enableInterrupt                        
0003521b  Timer_A_disableInterrupt                       
0003522f  Timer_A_getInterruptStatus                     
00035241  Timer_A_enableCaptureCompareInterrupt          
0003526d  Timer_A_disableCaptureCompareInterrupt         
00035295  Timer_A_getCaptureCompareInterruptStatus       
000352bd  Timer_A_getEnabledInterruptStatus              
000352d5  Timer_A_getCaptureCompareEnabledInterruptStatus
00035311  Timer_A_registerInterrupt                      
000353e3  Timer_A_unregisterInterrupt                    
000354ad  Fill_General_Sync_request_structure            
00035623  Handle_RTC_4mServer                            
0003569d  Handle_Mechswap_Response                       
00035745  Get_Meter_Status                               
00035871  Display_Meter_status                           
00035a01  RTC_C_startClock                               
00035a1f  RTC_C_holdClock                                
00035a3d  RTC_C_setCalibrationFrequency                  
00035a6d  RTC_C_setCalibrationData                       
00035a99  RTC_C_setTemperatureCompensation               
00035ac3  RTC_C_initCalendar                             
00035b35  RTC_C_getCalendarTime                          
00035b9b  RTC_C_setCalendarAlarm                         
00035bd3  RTC_C_setCalendarEvent                         
00035c03  RTC_C_definePrescaleEvent                      
00035c2b  RTC_C_getPrescaleValue                         
00035c57  RTC_C_setPrescaleValue                         
00035ca7  RTC_C_convertBCDToBinary                       
00035cbf  RTC_C_convertBinaryToBCD                       
00035cd7  RTC_C_enableInterrupt                          
00035d2d  RTC_C_disableInterrupt                         
00035d95  RTC_C_getInterruptStatus                       
00035dfd  RTC_C_getEnabledInterruptStatus                
00035e5d  RTC_C_clearInterruptFlag                       
00035ea3  RTC_C_registerInterrupt                        
00035ec1  RTC_C_unregisterInterrupt                      
00035f09  Rechargeable_battery_read                      
00035fb3  Temperature_read                               
000360c1  Adc_Vltg_init                                  
0003610d  get_battery_voltage_temp                       
000363ad  OnMaster                                       
00036417  OnSlave                                        
000364e3  BoardInit                                      
0003654f  Init_LORA                                      
00036567  test_radio                                     
000365a1  Validate_LORA_Parametrs                        
0003682d  GPIO_setAsOutputPin                            
00036867  GPIO_setAsInputPin                             
000368ad  GPIO_setAsPeripheralModuleFunctionOutputPin    
00036931  GPIO_setAsPeripheralModuleFunctionInputPin     
000369b5  GPIO_setOutputHighOnPin                        
000369d7  GPIO_setOutputLowOnPin                         
000369f9  GPIO_toggleOutputOnPin                         
00036a1b  GPIO_setAsInputPinWithPullDownResistor         
00036a6d  GPIO_setAsInputPinWithPullUpResistor           
00036abf  GPIO_getInputPinValue                          
00036aed  GPIO_enableInterrupt                           
00036b0f  GPIO_disableInterrupt                          
00036b31  GPIO_getInterruptStatus                        
00036b4f  GPIO_clearInterruptFlag                        
00036b71  GPIO_interruptEdgeSelect                       
00036ba7  GPIO_getEnabledInterruptStatus                 
00036c1f  GPIO_setDriveStrengthHigh                      
00036c41  GPIO_setDriveStrengthLow                       
00036c63  GPIO_registerInterrupt                         
00036c83  GPIO_unregisterInterrupt                       
00036ca9  Flash_init_SPI                                 
00036cd9  Display_HWSPI_Init                             
00036d13  DataKey_init_SPI                               
00036d1b  Flash_SPI_TX                                   
00036d77  Flash_SPI_RX                                   
00036daf  SPIWriteBitBangByte                            
00036e31  SPIWrite_7bits                                 
00036eb3  SPIWriteRLEByte                                
00036f4f  SPIWriteByte                                   
00036f69  Flash_SPI_Chip_Enable                          
00036fe1  Flash_SPI_Chip_Disable                         
00037039  Display_SPI_Chip_Enable                        
00037075  Display_SPI_Chip_Disable                       
0003709d  InitspiMasterConfig                            
000370d1  LORA_SPI_Init                                  
00037115  UART_initModule                                
000371fd  UART_transmitData                              
0003723f  UART_receiveData                               
00037265  UART_enableModule                              
0003727b  UART_disableModule                             
00037291  UART_queryStatusFlags                          
000372a5  UART_setDormant                                
000372b9  UART_resetDormant                              
000372cd  UART_transmitAddress                           
000372eb  UART_transmitBreak                             
00037331  UART_getReceiveBufferAddressForDMA             
0003733f  UART_getTransmitBufferAddressForDMA            
0003734d  UART_selectDeglitchTime                        
00037369  UART_enableInterrupt                           
00037399  UART_disableInterrupt                          
000373c9  UART_getInterruptStatus                        
000373e9  UART_getEnabledInterruptStatus                 
00037445  UART_clearInterruptFlag                        
00037465  UART_registerInterrupt                         
000374dd  UART_unregisterInterrupt                       
0003754b  Interrupt_enableMaster                         
0003755b  Interrupt_disableMaster                        
0003756b  Interrupt_registerInterrupt                    
000375bd  Interrupt_unregisterInterrupt                  
000375d1  Interrupt_setPriorityGrouping                  
000375eb  Interrupt_getPriorityGrouping                  
00037623  Interrupt_setPriority                          
00037673  Interrupt_getPriority                          
00037699  Interrupt_enableInterrupt                      
0003770b  Interrupt_disableInterrupt                     
0003777d  Interrupt_isEnabled                            
00037809  Interrupt_pendInterrupt                        
00037879  Interrupt_unpendInterrupt                      
000378c7  Interrupt_setPriorityMask                      
000378d7  Interrupt_getPriorityMask                      
000378e1  Interrupt_setVectorTableAddress                
000378f1  Interrupt_getVectorTableAddress                
000378f7  Interrupt_enableSleepOnIsrExit                 
00037909  Interrupt_disableSleepOnIsrExit                
00037939  DataKey_Write                                  
00037997  DataKey_Read                                   
000379f5  Calculate_File_CRC_for_DK_copy                 
00037c7d  SystemCoreClockUpdate                          
00037ef1  SystemInit                                     
00037fa5  watchdog_init                                  
00037fcb  Soft_Reset_watchdog                            
00037fe5  CS_init_CLK                                    
00038003  initialize_all                                 
0003834f  card_encode                                    
00038431  card_decode                                    
00038791  SysCtl_getTLVInfo                              
00038807  SysCtl_getSRAMSize                             
0003880d  SysCtl_getFlashSize                            
00038813  SysCtl_disableNMISource                        
00038827  SysCtl_enableNMISource                         
0003883b  SysCtl_getNMISourceStatus                      
00038841  SysCtl_enableSRAMBank                          
0003885d  SysCtl_disableSRAMBank                         
000388c5  SysCtl_enableSRAMBankRetention                 
000388e1  SysCtl_disableSRAMBankRetention                
000388fd  SysCtl_rebootDevice                            
00038907  SysCtl_enablePeripheralAtCPUHalt               
0003891b  SysCtl_disablePeripheralAtCPUHalt              
0003892f  SysCtl_setWDTTimeoutResetType                  
00038953  SysCtl_setWDTPasswordViolationResetType        
00038977  SysCtl_enableGlitchFilter                      
00038983  SysCtl_disableGlitchFilter                     
0003898f  SysCtl_getTempCalibrationConstant              
000389d5  init_debug_UART                                
00038a11  init_Telit_UART                                
00038a73  init_SmartCard_UART                            
00038ad5  debug_out_UART                                 
00038b21  Modem_out_UART                                 
00038b65  init_IDTech_UART                               
00038be1  Init_128BIT_AES_Set_EncryptMode                
00038c05  Init_128BIT_AES_Set_DecryptMode                
00038c2d  multiple_block_aes_encrypt                     
00038c87  multiple_block_aes_decrypt                     
00038ce1  Validate_AES_key                               
00038d47  processAesKey                                  
00038da9  isAESKeyExchangeRequired                       
00038dcd  SX1276InitIo                                   
00038de9  SX1276SetReset                                 
00038e1b  SX1276Write                                    
00038e35  SX1276Read                                     
00038e4b  SX1276WriteBuffer                              
00038ec1  SX1276ReadBuffer                               
00038f3d  SX1276SendByte                                 
00038f57  SX1276GetByte                                  
00038f6f  SX1276WriteFifo                                
00038f85  SX1276ReadFifo                                 
00039179  SX1276Init                                     
0003919f  SX1276Reset                                    
000391df  SX1276SetLoRaOn                                
00039283  SX1276GetLoRaOn                                
00039289  SX1276SetOpMode                                
00039299  SX1276GetOpMode                                
000392a1  SX1276ReadRssi                                 
000392b1  SX1276ReadRxGain                               
000392b9  SX1276GetPacketRxGain                          
000392c1  SX1276GetPacketSnr                             
000392d1  SX1276GetPacketRssi                            
000392e1  SX1276GetPacketAfc                             
000392e3  SX1276StartRx                                  
000392ed  SX1276GetRxPacket                              
000392fd  SX1276SetTxPacket                              
00039311  SX1276GetRFState                               
00039319  SX1276SetRFState                               
00039329  SX1276Process                                  
00039345  __aeabi_dsub                                   
0003934f  __aeabi_dadd                                   
000394fd  DelayMs                                        
0003953b  DelayMs_1                                      
0003957f  DelayMs_2                                      
000395c5  DelayUs                                        
000395e9  start_sensor_counter                           
000395f7  read_sensor_counter                            
000395fd  reset_sensor_counter                           
0003960f  cancel_sensor_counter                          
00039627  init_sensor_counter_12mhz                      
00039655  init_coin_sample_counter_12mhz                 
000397d1  __aeabi_ddiv                                   
00039a2d  ldexp                                          
00039a2d  ldexpl                                         
00039a2d  scalbn                                         
00039a2d  scalbnl                                        
00039b3d  __aeabi_dmul                                   
00039c39  Meter_regular_sleep                            
00039cbb  Exit_from_LPM                                  
00039d21  WDT_A_holdTimer                                
00039d41  WDT_A_startTimer                               
00039d61  WDT_A_clearTimer                               
00039d81  WDT_A_initWatchdogTimer                        
00039d9d  WDT_A_initIntervalTimer                        
00039db9  WDT_A_setPasswordViolationReset                
00039dc5  WDT_A_setTimeoutReset                          
00039dd1  WDT_A_registerInterrupt                        
00039de5  WDT_A_unregisterInterrupt                      
00039df9  REF_A_setReferenceVoltage                      
00039e13  REF_A_disableTempSensor                        
00039e1b  REF_A_enableTempSensor                         
00039e23  REF_A_enableReferenceVoltageOutput             
00039e2b  REF_A_disableReferenceVoltageOutput            
00039e33  REF_A_enableReferenceVoltage                   
00039e3b  REF_A_disableReferenceVoltage                  
00039e43  REF_A_getBandgapMode                           
00039e4d  REF_A_isBandgapActive                          
00039e59  REF_A_isRefGenBusy                             
00039e65  REF_A_isRefGenActive                           
00039e71  REF_A_getBufferedBandgapVoltageStatus          
00039e7d  REF_A_getVariableReferenceVoltageStatus        
00039e89  REF_A_setReferenceVoltageOneTimeTrigger        
00039e91  REF_A_setBufferedBandgapVoltageOneTimeTrigger  
00039ec5  calc_crc32                                     
00039f31  calculate_chksum                               
0003a02b  __aeabi_memcpy                                 
0003a02b  __aeabi_memcpy4                                
0003a02b  __aeabi_memcpy8                                
0003a02b  memcpy                                         
0003a0c7  __aeabi_uldivmod                               
0003a15d  __aeabi_cdcmpeq                                
0003a15d  __aeabi_cdcmple                                
0003a1e3  __aeabi_cdrcmple                               
0003a269  __aeabi_memclr                                 
0003a269  __aeabi_memclr4                                
0003a269  __aeabi_memclr8                                
0003a26b  __aeabi_memset                                 
0003a26b  __aeabi_memset4                                
0003a26b  __aeabi_memset8                                
0003a271  memset                                         
0003a351  __TI_decompress_lzss                           
0003a3b9  frexp                                          
0003a3b9  frexpl                                         
0003a41d  RadioDriverInit                                
0003a4cb  __TI_ltoa                                      
0003a571  __aeabi_f2ulz                                  
0003a5c1  atoi                                           
0003a60d  atol                                           
0003a659  __aeabi_d2iz                                   
0003a6a1  __TI_auto_init_nobinit_nopinit                 
0003a6e5  __aeabi_d2uiz                                  
0003a729  Reset_Handler                                  
0003a735  AES256_IRQHandler                              
0003a735  BusFault_Handler                               
0003a735  COMP_E0_IRQHandler                             
0003a735  COMP_E1_IRQHandler                             
0003a735  CS_IRQHandler                                  
0003a735  DMA_ERR_IRQHandler                             
0003a735  DMA_INT0_IRQHandler                            
0003a735  DMA_INT1_IRQHandler                            
0003a735  DMA_INT2_IRQHandler                            
0003a735  DMA_INT3_IRQHandler                            
0003a735  DebugMon_Handler                               
0003a735  Default_Handler                                
0003a735  FLCTL_IRQHandler                               
0003a735  FPU_IRQHandler                                 
0003a735  HardFault_Handler                              
0003a735  MemManage_Handler                              
0003a735  NMI_Handler                                    
0003a735  PCM_IRQHandler                                 
0003a735  PSS_IRQHandler                                 
0003a735  PendSV_Handler                                 
0003a735  SVC_Handler                                    
0003a735  SysTick_Handler                                
0003a735  T32_INT1_IRQHandler                            
0003a735  T32_INT2_IRQHandler                            
0003a735  T32_INTC_IRQHandler                            
0003a735  TA0_N_IRQHandler                               
0003a735  TA1_N_IRQHandler                               
0003a735  TA2_N_IRQHandler                               
0003a735  TA3_N_IRQHandler                               
0003a735  UsageFault_Handler                             
0003a76b  __aeabi_uidiv                                  
0003a76b  __aeabi_uidivmod                               
0003a7ad  sprintf                                        
0003a82b  CPU_cpsid                                      
0003a837  CPU_primask                                    
0003a841  CPU_cpsie                                      
0003a84d  CPU_wfi                                        
0003a851  CPU_basepriSet                                 
0003a85f  CPU_basepriGet                                 
0003a869  __aeabi_f2d                                    
0003a8a1  __aeabi_ul2f                                   
0003a8d7  strncpy                                        
0003a90d  _c_int00_noargs                                
0003a941  strstr                                         
0003a975  SX1276WriteRxTx                                
0003a9a5  __aeabi_i2d                                    
0003a9d3  strncmp                                        
0003a9ff  memcmp                                         
0003aa23  __aeabi_ui2d                                   
0003aa43  __aeabi_llsl                                   
0003aa61  memccpy                                        
0003aa7d  copysign                                       
0003aa7d  copysignl                                      
0003aaaf  strcmp                                         
0003aac7  strchr                                         
0003aadd  strcpy                                         
0003aaf1  strlen                                         
0003ab05  wcslen                                         
0003ab17  __TI_decompress_none                           
0003ab25  SX1276ReadDio3                                 
0003ab31  SX1276ReadDio4                                 
0003ab3d  __TI_zero_init                                 
0003ab55  __aeabi_errno_addr                             
0003ab5d  _system_pre_init                               
0003ab61  C$$EXIT                                        
0003ab61  abort                                          
0003ab64  font32x48                                      
0003cde4  font16x24                                      
0003e3e4  fontGIF3                                       
0003e66c  fontGIF2                                       
0003e854  _ctypes_                                       
0003e955  CFG_AMEX_PREF_1                                
0003e958  HoppingFrequencies                             
0003eb02  CFG_JCB_PREF_1                                 
0003ecb0  card_xxtea_key                                 
0003ecd4  CFG_MAG_COLL_CARD                              
0003ece1  CFG_MAG_TECH_CARD                              
0003ecee  CFG_VISA_PREF1                                 
0003ecfb  CFG_VISA_PREF2                                 
0003ed08  CFG_VISA_PREF3                                 
0003ed15  CFG_VISA_PREF4                                 
0003ed22  CFG_VISA_PREF5                                 
0003ed2f  CFG_VISA_PREF6                                 
0003ed3c  CFG_MASTCARD_PREF_1                            
0003ed47  CFG_MASTCARD_PREF_2                            
0003ed52  CFG_MASTCARD_PREF_3                            
0003ed5d  CFG_MASTCARD_PREF_4                            
0003ed90  DuncanAuthenticateSet                          
0003ed97  DuncanAuthenticateStore                        
0003ed9e  CFG_DISCOVER_PREF                              
0003eda3  CFG_ENROUTE_PREF_1                             
0003eda8  CFG_ENROUTE_PREF_2                             
0003edad  CFG_JCB_PREF_2                                 
0003edb2  CFG_JCB_PREF_3                                 
0003edb7  CFG_REINO_TEST_CARD                            
0003edbc  CFG_DINERS_PREF_1                              
0003edc0  CFG_DINERS_PREF_2                              
0003edc4  PCI_VERSION                                    
0003edc5  MPB_VERSION                                    
0003edc6  sub_VERSION                                    
0003edc7  branch_version                                 
0003edc8  CFG_AMEX_PREF_2                                
0003edcb  CFG_DINERS_PREF_3                              
0003edce  CFG_DINERS_PREF_4                              
0003edd1  CFG_DINERS_PREF_5                              
0003ef50  __TI_Handler_Table_Base                        
0003ef5c  __TI_Handler_Table_Limit                       
0003ef70  __TI_CINIT_Base                                
0003ef88  __TI_CINIT_Limit                               
0003f001  start_reprogram                                
20000000  __start___llvm_prf_cnts                        
20000000  __stop___llvm_prf_cnts                         
20000000  g_pfnRAMVectors                                
200000e4  Queue                                          
20004c30  LoRa_Queue                                     
200064e8  glSystem_cfg                                   
200074e7  Self_Calibration                               
20007ceb  glDFG_response                                 
200081ff  glMdmUart_recv_buf                             
20008713  DK_data_read_buffer                            
20008a97  flash_data_read_buffer                         
20008e1b  request_events                                 
2000911b  fTrack1Data                                    
200093cb  fTrack2Data                                    
2000967b  comm_queue                                     
2000990b  RData                                          
20009aff  Coin_Calib_Params                              
20009cc3  nw_operator_name_id                            
20009e67  sys_mdm_p                                      
2000a187  RFBuffer                                       
2000a287  rx_ans                                         
2000a387  LoRa_tx_queue                                  
2000a483  glEvent_cache                                  
2000a53f  lCoindata                                      
2000a5eb  glOLT_req                                      
2000a891  Buffer                                         
2000a911  SX1276LR_struct                                
2000a991  SX1276Regs                                     
2000aa11  glComm_response                                
2000aa91  glTemp_buf                                     
2000ab11  gprs_general_sync_request                      
2000abdb  acdb                                           
2000ac39  fTrack1String                                  
2000ac91  fTrack2String                                  
2000ace9  glBay_req                                      
2000ad40  glCreditcard_frame1                            
2000add0  RXData                                         
2000ae10  cmd_send                                       
2000ae50  glSCReadBuf                                    
2000ae90  glOLT_resp                                     
2000aecc  chunk_DNLD_status                              
2000af07  LineBuff                                       
2000af3b  RTC_String                                     
2000af6f  glAfm_response_p                               
2000afa3  Failed_Coins_diag                              
2000afcb  Scosta_Audit_Data                              
2000aff3  Current_ZO_eligibility                         
2000aff4  coin_type                                      
2000b01c  flash_file_actvn_tbl                           
2000b044  glCreditcard_frame                             
2000b06c  gprs_general_sync_response                     
2000b094  temp_coin_type                                 
2000b0e2  smart_card                                     
2000b106  glMB_info                                      
2000b129  tech_menu_disp                                 
2000b14a  External_Key                                   
2000b16a  Internal_Key                                   
2000b18a  default_apn                                    
2000b1aa  CardData                                       
2000b1c6  CardDataEncT2                                  
2000b1e2  Eof                                            
2000b1e4  rtc_c_calender                                 
2000b218  RadioDriver                                    
2000b230  rtc_hour_flag                                  
2000b248  LoRaSettings                                   
2000b25e  SCT_Trans_Data                                 
2000b289  default_UDP_server_ip                          
2000b29d  loCoinParam                                    
2000b2af  glOLTACK_req                                   
2000b2c0  fLRCOnestrack1                                 
2000b2d0  fLRCOnestrack2                                 
2000b2e0  PBC_other_MID_tx                               
2000b2ec  glAlarm_req                                    
2000b2f8  glDLST_FLAGS                                   
2000b304  temp_buff                                      
2000b328  External_Uid                                   
2000b330  Internal_Uid                                   
2000b338  RTC_ParkingTime                                
2000b340  SYNCardID                                      
2000b348  last_refund_update                             
2000b350  negetive_parking_time_left_on_meter            
2000b358  special_keys                                   
2000b366  Maintenance_Log                                
2000b374  CFG_file_sizearr                               
2000b378  DK_File_CRC                                    
2000b37c  Flash_File_CRC                                 
2000b380  Last_Audit_Time1                               
2000b384  PBC_amnt_rcvd                                  
2000b388  PBC_expt_rcvd                                  
2000b38c  Running_Space_ID                               
2000b390  SX1276                                         
2000b394  SYNCardDeductValue                             
2000b398  TData                                          
2000b39c  bkp_MDM_Total_On_Time                          
2000b3a0  bkp_Total_LCD_Backlight_On_Time                
2000b3a4  bkp_Total_LORA_PWR_On_Time                     
2000b3a8  bkp_Total_LORA_PWR_On_Time_DC                  
2000b3ac  config_RSAD                                    
2000b3b0  config_WSAD                                    
2000b3b4  file_sizearr                                   
2000b3b8  glCCexpiry_date                                
2000b3bc  glTemp0                                        
2000b3c0  mpb_code_RSAD                                  
2000b3c4  mpb_code_WSAD                                  
2000b3c8  sense                                          
2000b3cc  RXIndex                                        
2000b3ce  base_freq                                      
2000b3d0  default_UDP_server_port                        
2000b3d2  fBitCnt1                                       
2000b3d4  fBitCnt2                                       
2000b3d6  fBitCnt3                                       
2000b3d8  fBitCntp                                       
2000b3da  fNotReadCardCnt                                
2000b3dc  fOneCnt1                                       
2000b3de  fOneCnt2                                       
2000b3e0  fOneCnt3                                       
2000b3e2  fOneCntp                                       
2000b3e4  fParityError1                                  
2000b3e6  fParityError2                                  
2000b3e8  fParityError3                                  
2000b3ea  fReadingCard                                   
2000b3ec  fTruncBitCnt1                                  
2000b3ee  fTruncBitCnt2                                  
2000b3f0  fTruncBitCnt3                                  
2000b3f2  fTruncBitCntp                                  
2000b3f4  glTemp1                                        
2000b3f6  glTemp2                                        
2000b3f8  glTemp3                                        
2000b3fa  glTemp4                                        
2000b3fc  received_area_num                              
2000b3fe  received_cust_id                               
2000b400  received_meter_id                              
2000b402  temp1_max_sens                                 
2000b404  temp1_min_sens                                 
2000b406  temp2_max_sens                                 
2000b408  temp2_min_sens                                 
2000b40a  DLST_CURRENT_SLOT                              
2000b40b  FIRST_COMM                                     
2000b40c  LQI_counter                                    
2000b40d  RespIndex                                      
2000b40e  Screen_Clear                                   
2000b40f  Serial_no_length                               
2000b410  VCOM                                           
2000b411  coin_count                                     
2000b412  coin_validation_number                         
2000b413  fBitsPerByteT1                                 
2000b414  fBitsPerByteT2                                 
2000b415  fBitsPerByteT3                                 
2000b416  fCharMask                                      
2000b417  fEndSentinelChar                               
2000b418  fStartSentinelChar                             
2000b419  fStartSentinelCharT3                           
2000b41a  glDo_rtc_update                                
2000b41b  olt_sz                                         
2000b41c  packet_start                                   
2000b41d  temp1_ratio_1                                  
2000b41e  temp1_ratio_2                                  
2000b41f  temp2_ratio_1                                  
2000b420  temp2_ratio_2                                  
2000b421  temp_co                                        
2000b428  loSensorSamples                                
2000cb98  glCoindata                                     
2000ce90  payment_on_hold_timeout                        
2000ce94  dcd_error                                      
2000ce96  glCoin_Index                                   
2000ce98  gAutoCalibration                               
2000ce99  gSelfCalibration                               
2000ce9a  cal_sens                                       
2000ce9c  max_sens                                       
2000ce9e  min_sens                                       
2000cea0  sec_max                                        
2000cea2  ratio_1                                        
2000cea3  ratio_2                                        
2000cea4  MaxValue_point                                 
2000cea6  MinValue_point                                 
2000cea8  MaxValue_point1                                
2000ceaa  glIdx                                          
2000ceac  Be4Bootup                                      
2000ceae  wakecounts_to_check_update                     
2000ceb0  Last_WakeCount_downwards                       
2000ceb2  WakeCountAdjust                                
2000ceb4  fluctuating_counts                             
2000ceb6  wakecounts                                     
2000ceb8  Last_Cash_Payment_RTC                          
2000cebc  Calibration_TimeOut_RTC                        
2000cec0  glTotal_COIN_TransAmount                       
2000cec4  OPTICAL_COIN_JAM_RAISED                        
2000cec5  WAKEUP_COIL_JAM_RAISED                         
2000cec6  Wakecount_adjust_interval                      
2000cec7  CoinIndex                                      
2000cec8  wakecountsTest                                 
2000cecc  failed_coin_counter                            
2000cece  coin_type0                                     
2000ced0  coin_type1                                     
2000ced2  coin_type2                                     
2000ced4  coin_type3                                     
2000ced6  coin_type_invalid                              
2000ced8  temp_coin_type_invalid                         
2000ceda  temp_coin_type0                                
2000cedc  temp_coin_type1                                
2000cede  temp_coin_type2                                
2000cee0  temp_coin_type3                                
2000cee4  total_coin_values                              
2000cee8  temp_total_coin_values                         
2000ceec  Last_Audit_Time                                
2000cef0  Optical_LED_touched                            
2000cef4  sum_max                                        
2000cef8  sum_min                                        
2000cefc  sum_rat1                                       
2000cf00  sum_rat2                                       
2000cf04  averaged_max                                   
2000cf08  averaged_min                                   
2000cf0c  averaged_rat1                                  
2000cf10  averaged_rat2                                  
2000cf14  earned_time_in_seconds                         
2000cf18  coin_valid                                     
2000cf1a  min_time_insec                                 
2000cf1c  coin_invalid                                   
2000cf20  coindrop_TimeOut_RTC                           
2000cf24  jam                                            
2000cf26  wakeup_temp                                    
2000cf28  wakeup_skip                                    
2000cf29  second_check                                   
2000cf2a  M1_M2_Counter                                  
2000cf2c  cal_sens_t                                     
2000cf2e  coin_cal_sens_taken_from_last                  
2000cf2f  coin_second_check_for_Min_value                
2000cf30  coin_insert_ok                                 
2000cf34  min_col_counter_read1                          
2000cf38  accumulated_value_to_report1                   
2000cf3c  Asynchronous_FD                                
2000cf3d  wait_counter                                   
2000cf3e  BSU_Chunk_received                             
2000cf3f  glClose_socket                                 
2000cf40  glComm_failure_count                           
2000cf41  CFG_ERASE                                      
2000cf42  last_downloaded_chunks                         
2000cf43  Special_Action_Trigger                         
2000cf44  last_pktsent_time                              
2000cf48  last_LoRa_pktsent_time                         
2000cf4c  Packet_Index                                   
2000cf4d  LoRa_Packet_Index                              
2000cf4e  Waiting_4GPRS_Resp                             
2000cf4f  dfs_done_ready_to_activate                     
2000cf50  In_Queue_Count                                 
2000cf51  LoRa_Queue_Count                               
2000cf52  glTotal_5_cents                                
2000cf54  glTotal_10_cents                               
2000cf56  glTotal_25_cents                               
2000cf58  glTotal_100_cents                              
2000cf5a  glTotal_0_cents                                
2000cf5c  GPRS_comms_attempt_count                       
2000cf5e  GPRS_comms_success_count                       
2000cf60  LoRa_comms_attempt_count                       
2000cf62  LoRa_comms_success_count                       
2000cf64  Original_packet_count                          
2000cf66  Modem_On_Count                                 
2000cf68  bkp_original                                   
2000cf6a  bkp_gprs_attempt                               
2000cf6c  bkp_gprs_success                               
2000cf6e  bkp_lora_attempt                               
2000cf70  bkp_lora_success                               
2000cf72  bkp_mdm_on                                     
2000cf74  bkp_Events_count                               
2000cf76  glTotal_Valid_Coin_Count                       
2000cf78  glTotal_Coin_Count                             
2000cf7a  Queue_failure_count_l                          
2000cf7b  Batch_clear_continuous_fail                    
2000cf7c  temp_max                                       
2000cf7d  do_FD                                          
2000cf80  Last_Comms_Success_RTCTimestamp                
2000cf84  Last_Comms_Success_Flg                         
2000cf85  waiting_for_batch_response                     
2000cf86  SEND_SEQ_NUM_CHK_FLAG                          
2000cf88  received_curr_id                               
2000cf8a  LNG_Meter_ID                                   
2000cf8c  Current_bayStatus                              
2000cf8d  DFG_Chunk_received                             
2000cf8e  Waiting_4LORA_Resp                             
2000cf8f  PBC_to_Other_Meter                             
2000cf90  Seq_num                                        
2000cf91  Start_Hour_Coin_Diag                           
2000cf92  Start_Minute_Coin_Diag                         
2000cf93  Start_Day_Coin_Diag                            
2000cf94  Start_Month_Coin_Diag                          
2000cf96  ANTI_FEED_in_effect                            
2000cf98  CONFIG_WSAD_DK                                 
2000cf9c  MPB_CODE_WSAD_DK                               
2000cfa0  CONFIG_RSAD_DK                                 
2000cfa4  MPB_CODE_RSAD_DK                               
2000cfac  gl_Commission_Card                             
2000cfad  meter_out_of_service                           
2000cfae  Tech_menu                                      
2000cfaf  advanced_feature                               
2000cfb0  advanced_feature_count                         
2000cfb1  Display_meter_info_2ndpage                     
2000cfb2  Display_position                               
2000cfb3  maintenance_scrn_count                         
2000cfb4  maintenance_screen                             
2000cfb5  Adjust_clock_key_count                         
2000cfb6  Adjust_clock                                   
2000cfb7  copy_files_screen_count                        
2000cfb8  copy_files_screen                              
2000cfb9  exit_filemgr                                   
2000cfba  clear_alarm_check                              
2000cfbb  reset_timeout_count                            
2000cfbc  Static_display                                 
2000cfbd  tech_mode_timeout                              
2000cfbe  copy_lid_details                               
2000cfbf  activate_mpb_binary_from_dk                    
2000cfc0  activate_pgm_rpg_ccf                           
2000cfc1  Tech_modem_onoff_mode                          
2000cfc2  save_maintenance_log                           
2000cfc3  file_manager_screen                            
2000cfc4  comm_int_scrn                                  
2000cfc5  save_comm_interval_changes                     
2000cfc6  do_RTC_EVT_AFM_HB                              
2000cfc7  comm_int_scrn_count                            
2000cfc8  do_not_copy_files                              
2000cfc9  copy_all_files                                 
2000cfca  copy_only_config                               
2000cfcb  copy_only_mpb_firmware                         
2000cfcc  DK2Mech_copy_option_count                      
2000cfcd  Mech2DK_copy_option_count                      
2000cfce  DK_MECH_files_copied_count                     
2000cfcf  main_menu                                      
2000cfd0  Tech_menu_info                                 
2000cfd1  coms_info                                      
2000cfd2  clr_alarm                                      
2000cfd3  exit_mainpg                                    
2000cfd4  rtc_day                                        
2000cfd5  rtc_month                                      
2000cfd6  rtc_year                                       
2000cfd7  rtc_hour                                       
2000cfd8  rtc_min                                        
2000cfd9  evnt_day                                       
2000cfe9  activate_mpb_config                            
2000cfea  activate_mpb_binary                            
2000cfeb  config_update                                  
2000cfec  Current_extracted_time_PBC                     
2000d03c  Current_extracted_time_PBC_for_other_MID       
2000d08c  Last_processed_time                            
2000d0dc  Last_processed_time_PBC                        
2000d12c  Last_processed_time_PBC_for_other_MID          
2000d17c  olt_RSAD                                       
2000d180  EVENTS_BATCH_WSAD                              
2000d184  Current_Timestamp                              
2000d188  OLT_Timestamp                                  
2000d18c  Timestamp_diff                                 
2000d190  OLTAck_Q_count                                 
2000d191  Coin_Q_count                                   
2000d192  BayStatus_Q_count                              
2000d193  OLT_Q_count                                    
2000d194  Alarms_Q_count                                 
2000d195  SCT_Q_count                                    
2000d196  PAMBayStatus_Q_count                           
2000d197  EVENTS_Q_COUNT                                 
2000d198  queue_pending                                  
2000d199  EVENTS_Q_FULL                                  
2000d19a  queue_events                                   
2000d19c  Total_Events_count                             
2000d1a0  flag_check_addr                                
2000d1a4  batch_start_address                            
2000d1a8  Batch_Index_Sent                               
2000d1ac  last_pktsent_time_1                            
2000d1b0  Present_value                                  
2000d1b2  processwait                                    
2000d1cc  current_extracted_time                         
2000d21c  mdm_comm_status                                
2000d21d  DO_IP_SYNC                                     
2000d21e  MDM_AWAKE                                      
2000d21f  IP_done                                        
2000d220  glIn_diag_mode                                 
2000d222  glMdmUart_bytes_recvd                          
2000d224  Regn_Check_Count                               
2000d225  Send_SMS_ACK                                   
2000d226  COMMS_DOWN                                     
2000d227  MDM_Type_LE910NA1                              
2000d228  MDM_Type_ME910C1WW                             
2000d22c  COMMS_DOWN_timestamp                           
2000d230  MDM_On_Time                                    
2000d234  MDM_Off_Time                                   
2000d238  MDM_Total_On_Time                              
2000d23c  modem_init_to_process_cc_transaction           
2000d23d  Modem_Test_Flag                                
2000d25a  FD_BackGround_Occuring_Flag                    
2000d25b  APN_Assigned                                   
2000d25c  APN_Assigned_ignore_steps                      
2000d25d  t_mobile_apn_switch_flag                       
2000d25e  first_time_ws46_set_flag                       
2000d25f  ws46_selected_value                            
2000d260  ws46_selected_value_temp                       
2000d261  glSNSRdiag_string                              
2000d2a6  AES_KEY_ID                                     
2000d2a8  fd_start                                       
2000d2ac  received_crc                                   
2000d2b0  dfg_crc                                        
2000d2b4  Chunk_FileType                                 
2000d2b8  Chunk_FileOffset                               
2000d2bc  Downloaded_chunks                              
2000d2be  File_count                                     
2000d2c0  DFG_filled_resp_len                            
2000d2c2  REINITIATE_FD                                  
2000d2e4  Queue_SendReceive                              
2000d2e5  SLEEP_ENABLE                                   
2000d2e8  Tasks_Priority_Register                        
2000d2ec  DFG_content_length                             
2000d2f0  wdt_base_Counter                               
2000d2f2  Seconds_Counter                                
2000d2f4  SC_bytes                                       
2000d2f5  Event                                          
2000d2f6  bufferFlag                                     
2000d2f7  smart_card_mode                                
2000d2f8  scosta_smartcard_mode                          
2000d2f9  LED_selected_in_config                         
2000d2fa  LED_ON                                         
2000d2fb  LED_ON_Count                                   
2000d2fc  special_key_count                              
2000d2fd  Quick_meter_status_request                     
2000d2fe  Tech_key_seq                                   
2000d300  pbc_amount_recvd                               
2000d304  pbc_expiry_time_recvd                          
2000d308  LORA_PWR_OFF_Time_DC                           
2000d30c  LORA_PWR_On_Time_DC                            
2000d310  Total_LORA_PWR_On_Time_DC                      
2000d314  LED_SPACE_REAR                                 
2000d315  LEFT_REAR                                      
2000d316  RIGHT_REAR                                     
2000d317  LED_SPACE_FRONT                                
2000d318  LEFT_FRONT                                     
2000d319  RIGHT_FRONT                                    
2000d31c  Last_CC_Payment_RTC                            
2000d350  Count                                          
2000d354  SX1276LR                                       
2000d358  RFLRState                                      
2000d35a  RxPacketSize                                   
2000d360  RxPacketRssiValue                              
2000d368  Transmitter_RSSI_value                         
2000d380  current_rate_index                             
2000d381  Max_Amount_In_current_rate                     
2000d382  next_rate_index1                               
2000d383  next_rate_index2                               
2000d384  next_rate_index3                               
2000d385  next_rate_index4                               
2000d386  next_rate_index5                               
2000d388  minutes_left_in_current_schedule               
2000d38a  minutes_left_in_next_schedule                  
2000d38c  max_time_in_current_rate                       
2000d390  santa_cruz_previous_paid_time                  
2000d394  sch_message_index_1                            
2000d395  sch_message_index_2                            
2000d396  sch_message_index_3                            
2000d397  sch_message_index_4                            
2000d398  holiday_spl_event_found                        
2000d399  this_is_a_CC                                   
2000d39a  next_sched_minutes_left_in_current_schedule    
2000d39c  last_amount_used_for_calc_in_CC                
2000d3a0  First_amount_used_for_calc_in_CC               
2000d3a4  First_lmax_time_allowed_in_CC                  
2000d3a8  last_lmax_time_allowed_in_CC                   
2000d3ac  First_Time_CC_Entry_For_Next_Schedule          
2000d3ad  Meter_Full                                     
2000d3b0  SC_City_Code                                   
2000d3b1  Record_ID                                      
2000d3b2  show_balance_and_deduct                        
2000d3b3  SC_Verify_Update                               
2000d3b4  calc_refund_amount                             
2000d3b8  glTotal_SCT_TransAmount                        
2000d3bc  SC_Serial_Num                                  
2000d3c0  glTotal_SCT_TransCount                         
2000d3c2  Payment_card                                   
2000d3c4  Refund_PreviousSN                              
2000d3c8  Refund_PresentSN                               
2000d3cc  Refund_timestamp                               
2000d3d0  Refund_earned_mins                             
2000d3d4  RefundNewBalverify                             
2000d3d8  RefundOK                                       
2000d3d9  calibration_display_buf                        
2000d429  Meter_Full_Flg                                 
2000d42c  T2_Faw_flag                                    
2000d42d  T1_Faw_flag                                    
2000d42e  ccard_dataread_flag                            
2000d42f  card_removed_flag                              
2000d430  check_card_read                                
2000d431  Connected_Card_reader                          
2000d432  gl_CC_amount_selected                          
2000d434  glCurrent_amount                               
2000d438  OLT_start_time                                 
2000d43c  OLT_end_time                                   
2000d440  olt_time_taken                                 
2000d444  CC_TimeOut_RTCTimestamp                        
2000d448  mag_technician_card                            
2000d449  mag_collection_card                            
2000d44a  IDTECH_AUDIT_CARD                              
2000d44b  Credit_Card_processed_screen                   
2000d44c  CardJam_TimeOut_RTC                            
2000d450  CardJam_Flag                                   
2000d451  cardread                                       
2000d452  cc_approved                                    
2000d454  machinestate                                   
2000d458  Coin_Per_Udp_Packet                            
2000d45a  lCoinCount                                     
2000d45c  do_General_Sync                                
2000d45d  do_Events_Update                               
2000d45e  do_Alarms_Update                               
2000d45f  do_Cash_Update                                 
2000d460  do_CC_OLT                                      
2000d461  do_SCT_Update                                  
2000d462  do_Sensor_Update                               
2000d463  do_file_update                                 
2000d464  General_Sync_Interval                          
2000d466  Event_Upload_Interval                          
2000d468  Battery_Read_Interval                          
2000d46a  File_Activation_interval                       
2000d46c  Process_Flash_Queue                            
2000d46d  CHECKED_SMS_ON_TIMEOUT                         
2000d46e  min_count                                      
2000d46f  CARD_JAM_RAISED                                
2000d470  severe_events_send                             
2000d471  Add_CC_to_RAM_Q                                
2000d474  Test_Watchdog_Time_1                           
2000d478  Parking_Clock_Refresh_flag                     
2000d479  Parking_Clock_Refresh                          
2000d47c  bits_count                                     
2000d47e  Flash_Operation                                
2000d47f  CC_Auth_Entered                                
2000d480  BKLT_TimeOut_RTCTimestamp                      
2000d484  LCD_BKLT_ON                                    
2000d485  do_not_allow_cc_auth                           
2000d486  Current_Space_Id                               
2000d488  hours_to_display                               
2000d489  minutes_to_display                             
2000d48a  hours_to_display_L                             
2000d48b  minutes_to_display_L                           
2000d48c  hours_to_display_R                             
2000d48d  minutes_to_display_R                           
2000d48e  temp_minutes_to_disp                           
2000d490  payment_on_hold                                
2000d492  bay_number_to_display                          
2000d494  earned_time_in_seconds_temp                    
2000d498  key_RL                                         
2000d49c  Screen_TimeOut_RTC                             
2000d4a0  WAITING_FOR_SMS_RESPONSE                       
2000d4a1  HARDWARE_REVISION                              
2000d4a4  LORA_PWR_OFF_Time                              
2000d4a8  LORA_PWR_On_Time                               
2000d4ac  Total_LORA_PWR_On_Time                         
2000d4b0  LCD_Backlight_On_Time                          
2000d4b4  LCD_Backlight_Off_Time                         
2000d4b8  Total_LCD_Backlight_On_Time                    
2000d4bc  Duty_Cycle_Mode                                
2000d4be  Lora_rx_Count                                  
2000d4c0  BufferSize                                     
2000d4c2  LORA_PWR                                       
2000d4c4  cCount                                         
2000d4c6  SF                                             
2000d4c7  BW                                             
2000d4c8  PW                                             
2000d4ca  CF                                             
2000d4cc  PL                                             
2000d4ce  PKTS                                           
2000d4d0  Print_Once                                     
2000d4d4  Radio                                          
2000d4d8  Last_Sensor_Success_RTCTimestamp               
2000d4dc  revert_parking_clock                           
2000d4e0  SMS_MODE                                       
2000d4e1  ELIGIBLE_FOR_ZERO_OUT                          
2000d4e2  Normal_occupied                                
2000d4e3  Clean_occupied                                 
2000d4e4  Unclean_occupied_count                         
2000d4e6  occupancygl                                    
2000d4e8  glSNSR_TMP                                     
2000d4ea  DIAG_EXCEPTION                                 
2000d4eb  sensor_tnx_flag                                
2000d4ec  Test_Watchdog_Time                             
2000d4f0  t_mobile_selected_apn_retry_flag               
2000d4f2  batt_vltg                                      
2000d50a  LoRaSettings1                                  
2000d570  gl_Sensitivity1                                
2000d571  No_Modem_Coin_Only                             
2000d572  REV4_LED_CONFIG                                
2000d573  Front_Bi_Color                                 
2000d574  Self_calibrated_after_last_cfg                 
2000d575  Coin_cal_index                                 
2000d576  add_2_seconds                                  
2000d578  Coin_cal_max                                   
2000d57a  Coin_cal_min                                   
2000d580  Opto_Coin_Disable                              
2000d581  AES_KEY                                        
2000d591  parking_clock                                  
2000d5a0  LQI_diagnostic                                 
2000d5ac  tempC                                          
2000d5c1  Debug_Verbose_Level                            
2000d5c2  last_minimum_vltg                              
2000d5c4  batt_voltage_read_count                        
2000d5c5  read_count                                     
2000d5c6  PreviousValue                                  
2000d5c8  Low_Battery_count                              
2000d5c9  Low_Battery_count_H                            
2000d5ca  Low_Battery_count_L                            
2000d5cc  DLST_HOUR_CHANGE                               
2000d5cd  set_DLST                                       
2000d5ce  glDLST_month                                   
2000d5cf  glDLST_day                                     
2000d5d0  glDLST_hour                                    
2000d5d2  glDLST_year                                    
2000d5d4  DLST_FLAG_CHECK                                
2000d5dd  Space_Zero_Out                                 
2000d5e8  key_press                                      
2000d5ec  KeyPress_TimeOut_RTC                           
2000d5f0  gl_RTCHOUR                                     
2000d5f1  IN_LPM_TEST                                    
2000d5f2  Init_Complete_flag                             
2000d5f3  Modem_Off_initiated                            
2000d5f4  Mdm_off_start_timestamp                        
2000d5f8  err1                                           
2000d5fc  Serial_No_ASCII                                
2000d600  last_payment_try_time                          
2000d608  last_vacant_timestamp                          
2000d610  parking_time_left_on_meter                     
2000d618  parking_time_left_on_meter_prev                
2000d620  ICCID_First_6_Digit                            
2000d628  Sync_status                                    
2000d62c  Initial_boot                                   
2000d62d  SENSOR_OUT_STATUS                              
2000d62e  Meter_Reset                                    
2000d62f  next_sched_rate_index                          
2000d635  VAC_ZERO_ELIGIBLE                              
2000d638  errno                                          
2000d63c  SystemCoreClock                                
2000d640  ZERO_OUT                                       
2000d642  ZERO_OUT_ENABLE_AT_EXPIRY                      
2000d644  glLast_reported_space_status                   
2000d646  grace_time_trigger                             
2000d648  in_prepay_parking                              
2000d64a  real_payment_flag                              
2000d64c  time_retain                                    
2000fe00  __stack                                        
20010000  __STACK_END                                    
4000480c  WDTCTL_SYM                                     
ffffffff  __TI_pprof_out_hndl                            
ffffffff  __TI_prof_data_size                            
ffffffff  __TI_prof_data_start                           
ffffffff  __binit__                                      
ffffffff  __c_args__                                     
ffffffff  binit                                          
UNDEFED   __mpu_init                                     
UNDEFED   _system_post_cinit                             

[1653 symbols]
